 bindings

 Timestamp is 582c8004 (Wed Nov 16 16:49:24 2016)

 Preferred load address is 10000000

 Start         Length     Name                   Class
 0001:00000000 0005c380H .text$mn                CODE
 0002:00000000 00000120H .idata$5                DATA
 0002:00000120 00000004H .00cfg                  DATA
 0002:00000124 00000004H .CRT$XCA                DATA
 0002:00000128 00000004H .CRT$XCU                DATA
 0002:0000012c 00000004H .CRT$XCZ                DATA
 0002:00000130 00000004H .CRT$XIA                DATA
 0002:00000134 0000000cH .CRT$XIC                DATA
 0002:00000140 00000004H .CRT$XIZ                DATA
 0002:00000144 00000004H .CRT$XPA                DATA
 0002:00000148 00000008H .CRT$XPX                DATA
 0002:00000150 00000004H .CRT$XPXA               DATA
 0002:00000154 00000004H .CRT$XPZ                DATA
 0002:00000158 00000004H .CRT$XTA                DATA
 0002:0000015c 00000004H .CRT$XTZ                DATA
 0002:00000160 000217c4H .rdata                  DATA
 0002:00021924 0000012cH .rdata$r                DATA
 0002:00021a50 0000000cH .rdata$sxdata           DATA
 0002:00021a5c 000003c4H .rdata$zzzdbg           DATA
 0002:00021e20 00000004H .rtc$IAA                DATA
 0002:00021e24 00000004H .rtc$IZZ                DATA
 0002:00021e28 00000004H .rtc$TAA                DATA
 0002:00021e2c 00000004H .rtc$TZZ                DATA
 0002:00021e30 000004bcH .xdata$x                DATA
 0002:000222ec 00000020H .didat$2                DATA
 0002:0002230c 00000020H .didat$3                DATA
 0002:0002232c 000000c8H .didat$4                DATA
 0002:000223f4 00000c28H .didat$6                DATA
 0002:0002301c 000000d4H .didat$7                DATA
 0002:000230f0 00000054H .edata                  DATA
 0002:00023144 00000014H .idata$2                DATA
 0002:00023158 00000014H .idata$3                DATA
 0002:0002316c 00000120H .idata$4                DATA
 0002:0002328c 00000522H .idata$6                DATA
 0003:00000000 00000a20H .data                   DATA
 0003:00000a20 00000078H .data$r                 DATA
 0003:00000a98 000000c8H .didat$5                DATA
 0003:00000b60 00022de8H .bss                    DATA
 0004:00000000 0000008cH .gfids$x                DATA
 0004:0000008c 00000044H .gfids$y                DATA
 0005:00000000 00000fe0H _RDATA                  DATA
 0006:00000000 00000060H .rsrc$01                DATA
 0006:00000060 00000180H .rsrc$02                DATA

  Address         Publics by Value              Rva+Base       Lib:Object

 0000:00000000       __except_list              00000000     <absolute>
 0000:00000000       ___guard_fids_count        00000000     <absolute>
 0000:00000000       ___guard_longjmp_count     00000000     <absolute>
 0000:00000000       ___guard_longjmp_table     00000000     <absolute>
 0000:00000000       ___guard_iat_table         00000000     <absolute>
 0000:00000000       ___guard_iat_count         00000000     <absolute>
 0000:00000000       ___dynamic_value_reloc_table 00000000     <absolute>
 0000:00000000       ___guard_fids_table        00000000     <absolute>
 0000:00000003       ___safe_se_handler_count   00000003     <absolute>
 0000:00000100       ___guard_flags             00000100     <absolute>
 0000:00000000       ___ImageBase               10000000     <linker-defined>
 0001:00000000       ?Initialize@nodelame@@YAXV?$Local@VObject@v8@@@v8@@@Z 10001000 f   bindings.obj
 0001:000000f0       ?New@?$Factory@VFunctionTemplate@v8@@@imp@Nan@@SA?AV?$Local@VFunctionTemplate@v8@@@v8@@P6AXABV?$FunctionCallbackInfo@VValue@v8@@@3@@ZV?$Local@VValue@v8@@@5@V?$Local@VSignature@v8@@@5@@Z 100010f0 f i node_lame.obj
 0001:00000210       ___except_validate_jump_buffer 10001210 f   libvcruntime:jbcxrval.obj
 0001:00000210       ?node_mpg123_exit@nodelame@@YAXABV?$FunctionCallbackInfo@VValue@v8@@@Nan@@@Z 10001210 f   node_mpg123.obj
 0001:00000210       @_guard_check_icall_nop@4  10001210 f   LIBCMT:guard_support.obj
 0001:00000210       ___except_validate_context_record 10001210 f   libvcruntime:jbcxrval.obj
 0001:00000220       ?node_get_lame_version@nodelame@@YAXABV?$FunctionCallbackInfo@VValue@v8@@@Nan@@@Z 10001220 f   node_lame.obj
 0001:00000270       ?node_get_lame_os_bitness@nodelame@@YAXABV?$FunctionCallbackInfo@VValue@v8@@@Nan@@@Z 10001270 f   node_lame.obj
 0001:000002c0       ?node_lame_close@nodelame@@YAXABV?$FunctionCallbackInfo@VValue@v8@@@Nan@@@Z 100012c0 f   node_lame.obj
 0001:00000320       ?node_lame_init@nodelame@@YAXABV?$FunctionCallbackInfo@VValue@v8@@@Nan@@@Z 10001320 f   node_lame.obj
 0001:000003c0       ?node_lame_encode_buffer@nodelame@@YAXABV?$FunctionCallbackInfo@VValue@v8@@@Nan@@@Z 100013c0 f   node_lame.obj
 0001:000006c0       ?node_lame_encode_buffer_async@nodelame@@YAXPAUuv_work_s@@@Z 100016c0 f   node_lame.obj
 0001:00000e80       ?node_lame_encode_buffer_after@nodelame@@YAXPAUuv_work_s@@@Z 10001e80 f   node_lame.obj
 0001:00000fc0       ?node_lame_encode_flush_nogap@nodelame@@YAXABV?$FunctionCallbackInfo@VValue@v8@@@Nan@@@Z 10001fc0 f   node_lame.obj
 0001:00001190       ?node_lame_encode_flush_nogap_async@nodelame@@YAXPAUuv_work_s@@@Z 10002190 f   node_lame.obj
 0001:000011b0       ?node_lame_get_id3v1_tag@nodelame@@YAXABV?$FunctionCallbackInfo@VValue@v8@@@Nan@@@Z 100021b0 f   node_lame.obj
 0001:000012d0       ?node_lame_get_id3v2_tag@nodelame@@YAXABV?$FunctionCallbackInfo@VValue@v8@@@Nan@@@Z 100022d0 f   node_lame.obj
 0001:00001400       ?node_lame_init_params@nodelame@@YAXABV?$FunctionCallbackInfo@VValue@v8@@@Nan@@@Z 10002400 f   node_lame.obj
 0001:000014c0       ?node_lame_print_internals@nodelame@@YAXABV?$FunctionCallbackInfo@VValue@v8@@@Nan@@@Z 100024c0 f   node_lame.obj
 0001:00001530       ?node_lame_print_config@nodelame@@YAXABV?$FunctionCallbackInfo@VValue@v8@@@Nan@@@Z 10002530 f   node_lame.obj
 0001:000015a0       ?node_lame_bitrates@nodelame@@YAXABV?$FunctionCallbackInfo@VValue@v8@@@Nan@@@Z 100025a0 f   node_lame.obj
 0001:00001700       ?node_lame_samplerates@nodelame@@YAXABV?$FunctionCallbackInfo@VValue@v8@@@Nan@@@Z 10002700 f   node_lame.obj
 0001:00001850       ?node_lame_get_num_samples@nodelame@@YAXABV?$FunctionCallbackInfo@VValue@v8@@@Nan@@@Z 10002850 f   node_lame.obj
 0001:00001920       ?node_lame_set_num_samples@nodelame@@YAXABV?$FunctionCallbackInfo@VValue@v8@@@Nan@@@Z 10002920 f   node_lame.obj
 0001:00001a20       ?node_lame_get_in_samplerate@nodelame@@YAXABV?$FunctionCallbackInfo@VValue@v8@@@Nan@@@Z 10002a20 f   node_lame.obj
 0001:00001ae0       ?node_lame_set_in_samplerate@nodelame@@YAXABV?$FunctionCallbackInfo@VValue@v8@@@Nan@@@Z 10002ae0 f   node_lame.obj
 0001:00001bd0       ?node_lame_get_num_channels@nodelame@@YAXABV?$FunctionCallbackInfo@VValue@v8@@@Nan@@@Z 10002bd0 f   node_lame.obj
 0001:00001c90       ?node_lame_set_num_channels@nodelame@@YAXABV?$FunctionCallbackInfo@VValue@v8@@@Nan@@@Z 10002c90 f   node_lame.obj
 0001:00001d80       ?node_lame_get_scale@nodelame@@YAXABV?$FunctionCallbackInfo@VValue@v8@@@Nan@@@Z 10002d80 f   node_lame.obj
 0001:00001e40       ?node_lame_set_scale@nodelame@@YAXABV?$FunctionCallbackInfo@VValue@v8@@@Nan@@@Z 10002e40 f   node_lame.obj
 0001:00001f30       ?node_lame_get_scale_left@nodelame@@YAXABV?$FunctionCallbackInfo@VValue@v8@@@Nan@@@Z 10002f30 f   node_lame.obj
 0001:00002000       ?node_lame_set_scale_left@nodelame@@YAXABV?$FunctionCallbackInfo@VValue@v8@@@Nan@@@Z 10003000 f   node_lame.obj
 0001:000020f0       ?node_lame_get_scale_right@nodelame@@YAXABV?$FunctionCallbackInfo@VValue@v8@@@Nan@@@Z 100030f0 f   node_lame.obj
 0001:000021b0       ?node_lame_set_scale_right@nodelame@@YAXABV?$FunctionCallbackInfo@VValue@v8@@@Nan@@@Z 100031b0 f   node_lame.obj
 0001:000022a0       ?node_lame_get_out_samplerate@nodelame@@YAXABV?$FunctionCallbackInfo@VValue@v8@@@Nan@@@Z 100032a0 f   node_lame.obj
 0001:00002360       ?node_lame_set_out_samplerate@nodelame@@YAXABV?$FunctionCallbackInfo@VValue@v8@@@Nan@@@Z 10003360 f   node_lame.obj
 0001:00002450       ?node_lame_get_analysis@nodelame@@YAXABV?$FunctionCallbackInfo@VValue@v8@@@Nan@@@Z 10003450 f   node_lame.obj
 0001:00002510       ?node_lame_set_analysis@nodelame@@YAXABV?$FunctionCallbackInfo@VValue@v8@@@Nan@@@Z 10003510 f   node_lame.obj
 0001:00002600       ?node_lame_get_bWriteVbrTag@nodelame@@YAXABV?$FunctionCallbackInfo@VValue@v8@@@Nan@@@Z 10003600 f   node_lame.obj
 0001:000026c0       ?node_lame_set_bWriteVbrTag@nodelame@@YAXABV?$FunctionCallbackInfo@VValue@v8@@@Nan@@@Z 100036c0 f   node_lame.obj
 0001:000027b0       ?node_lame_get_quality@nodelame@@YAXABV?$FunctionCallbackInfo@VValue@v8@@@Nan@@@Z 100037b0 f   node_lame.obj
 0001:00002870       ?node_lame_set_quality@nodelame@@YAXABV?$FunctionCallbackInfo@VValue@v8@@@Nan@@@Z 10003870 f   node_lame.obj
 0001:00002970       ?node_lame_get_mode@nodelame@@YAXABV?$FunctionCallbackInfo@VValue@v8@@@Nan@@@Z 10003970 f   node_lame.obj
 0001:00002a30       ?node_lame_set_mode@nodelame@@YAXABV?$FunctionCallbackInfo@VValue@v8@@@Nan@@@Z 10003a30 f   node_lame.obj
 0001:00002b20       ?node_lame_get_brate@nodelame@@YAXABV?$FunctionCallbackInfo@VValue@v8@@@Nan@@@Z 10003b20 f   node_lame.obj
 0001:00002be0       ?node_lame_set_brate@nodelame@@YAXABV?$FunctionCallbackInfo@VValue@v8@@@Nan@@@Z 10003be0 f   node_lame.obj
 0001:00002ce0       ?node_lame_get_compression_ratio@nodelame@@YAXABV?$FunctionCallbackInfo@VValue@v8@@@Nan@@@Z 10003ce0 f   node_lame.obj
 0001:00002da0       ?node_lame_set_compression_ratio@nodelame@@YAXABV?$FunctionCallbackInfo@VValue@v8@@@Nan@@@Z 10003da0 f   node_lame.obj
 0001:00002e90       ?node_lame_get_copyright@nodelame@@YAXABV?$FunctionCallbackInfo@VValue@v8@@@Nan@@@Z 10003e90 f   node_lame.obj
 0001:00002f50       ?node_lame_set_copyright@nodelame@@YAXABV?$FunctionCallbackInfo@VValue@v8@@@Nan@@@Z 10003f50 f   node_lame.obj
 0001:00003040       ?node_lame_get_original@nodelame@@YAXABV?$FunctionCallbackInfo@VValue@v8@@@Nan@@@Z 10004040 f   node_lame.obj
 0001:00003100       ?node_lame_set_original@nodelame@@YAXABV?$FunctionCallbackInfo@VValue@v8@@@Nan@@@Z 10004100 f   node_lame.obj
 0001:000031f0       ?node_lame_get_error_protection@nodelame@@YAXABV?$FunctionCallbackInfo@VValue@v8@@@Nan@@@Z 100041f0 f   node_lame.obj
 0001:000032b0       ?node_lame_set_error_protection@nodelame@@YAXABV?$FunctionCallbackInfo@VValue@v8@@@Nan@@@Z 100042b0 f   node_lame.obj
 0001:000033a0       ?node_lame_get_extension@nodelame@@YAXABV?$FunctionCallbackInfo@VValue@v8@@@Nan@@@Z 100043a0 f   node_lame.obj
 0001:00003460       ?node_lame_set_extension@nodelame@@YAXABV?$FunctionCallbackInfo@VValue@v8@@@Nan@@@Z 10004460 f   node_lame.obj
 0001:00003550       ?node_lame_get_strict_ISO@nodelame@@YAXABV?$FunctionCallbackInfo@VValue@v8@@@Nan@@@Z 10004550 f   node_lame.obj
 0001:00003610       ?node_lame_set_strict_ISO@nodelame@@YAXABV?$FunctionCallbackInfo@VValue@v8@@@Nan@@@Z 10004610 f   node_lame.obj
 0001:00003700       ?node_lame_get_disable_reservoir@nodelame@@YAXABV?$FunctionCallbackInfo@VValue@v8@@@Nan@@@Z 10004700 f   node_lame.obj
 0001:000037c0       ?node_lame_set_disable_reservoir@nodelame@@YAXABV?$FunctionCallbackInfo@VValue@v8@@@Nan@@@Z 100047c0 f   node_lame.obj
 0001:000038b0       ?node_lame_get_quant_comp@nodelame@@YAXABV?$FunctionCallbackInfo@VValue@v8@@@Nan@@@Z 100048b0 f   node_lame.obj
 0001:00003970       ?node_lame_set_quant_comp@nodelame@@YAXABV?$FunctionCallbackInfo@VValue@v8@@@Nan@@@Z 10004970 f   node_lame.obj
 0001:00003a60       ?node_lame_get_quant_comp_short@nodelame@@YAXABV?$FunctionCallbackInfo@VValue@v8@@@Nan@@@Z 10004a60 f   node_lame.obj
 0001:00003b20       ?node_lame_set_quant_comp_short@nodelame@@YAXABV?$FunctionCallbackInfo@VValue@v8@@@Nan@@@Z 10004b20 f   node_lame.obj
 0001:00003c10       ?node_lame_get_exp_nspsytune@nodelame@@YAXABV?$FunctionCallbackInfo@VValue@v8@@@Nan@@@Z 10004c10 f   node_lame.obj
 0001:00003cd0       ?node_lame_set_exp_nspsytune@nodelame@@YAXABV?$FunctionCallbackInfo@VValue@v8@@@Nan@@@Z 10004cd0 f   node_lame.obj
 0001:00003dc0       ?node_lame_get_VBR@nodelame@@YAXABV?$FunctionCallbackInfo@VValue@v8@@@Nan@@@Z 10004dc0 f   node_lame.obj
 0001:00003e80       ?node_lame_set_VBR@nodelame@@YAXABV?$FunctionCallbackInfo@VValue@v8@@@Nan@@@Z 10004e80 f   node_lame.obj
 0001:00003f70       ?node_lame_get_VBR_q@nodelame@@YAXABV?$FunctionCallbackInfo@VValue@v8@@@Nan@@@Z 10004f70 f   node_lame.obj
 0001:00004030       ?node_lame_set_VBR_q@nodelame@@YAXABV?$FunctionCallbackInfo@VValue@v8@@@Nan@@@Z 10005030 f   node_lame.obj
 0001:00004150       ?node_lame_get_VBR_quality@nodelame@@YAXABV?$FunctionCallbackInfo@VValue@v8@@@Nan@@@Z 10005150 f   node_lame.obj
 0001:00004220       ?node_lame_set_VBR_quality@nodelame@@YAXABV?$FunctionCallbackInfo@VValue@v8@@@Nan@@@Z 10005220 f   node_lame.obj
 0001:00004350       ?node_lame_get_VBR_mean_bitrate_kbps@nodelame@@YAXABV?$FunctionCallbackInfo@VValue@v8@@@Nan@@@Z 10005350 f   node_lame.obj
 0001:00004410       ?node_lame_set_VBR_mean_bitrate_kbps@nodelame@@YAXABV?$FunctionCallbackInfo@VValue@v8@@@Nan@@@Z 10005410 f   node_lame.obj
 0001:00004500       ?node_lame_get_VBR_min_bitrate_kbps@nodelame@@YAXABV?$FunctionCallbackInfo@VValue@v8@@@Nan@@@Z 10005500 f   node_lame.obj
 0001:000045c0       ?node_lame_set_VBR_min_bitrate_kbps@nodelame@@YAXABV?$FunctionCallbackInfo@VValue@v8@@@Nan@@@Z 100055c0 f   node_lame.obj
 0001:000046b0       ?node_lame_get_VBR_max_bitrate_kbps@nodelame@@YAXABV?$FunctionCallbackInfo@VValue@v8@@@Nan@@@Z 100056b0 f   node_lame.obj
 0001:00004770       ?node_lame_set_VBR_max_bitrate_kbps@nodelame@@YAXABV?$FunctionCallbackInfo@VValue@v8@@@Nan@@@Z 10005770 f   node_lame.obj
 0001:00004860       ?node_lame_get_VBR_hard_min@nodelame@@YAXABV?$FunctionCallbackInfo@VValue@v8@@@Nan@@@Z 10005860 f   node_lame.obj
 0001:00004920       ?node_lame_set_VBR_hard_min@nodelame@@YAXABV?$FunctionCallbackInfo@VValue@v8@@@Nan@@@Z 10005920 f   node_lame.obj
 0001:00004a10       ?node_lame_get_lowpassfreq@nodelame@@YAXABV?$FunctionCallbackInfo@VValue@v8@@@Nan@@@Z 10005a10 f   node_lame.obj
 0001:00004ad0       ?node_lame_set_lowpassfreq@nodelame@@YAXABV?$FunctionCallbackInfo@VValue@v8@@@Nan@@@Z 10005ad0 f   node_lame.obj
 0001:00004bc0       ?node_lame_get_lowpasswidth@nodelame@@YAXABV?$FunctionCallbackInfo@VValue@v8@@@Nan@@@Z 10005bc0 f   node_lame.obj
 0001:00004c80       ?node_lame_set_lowpasswidth@nodelame@@YAXABV?$FunctionCallbackInfo@VValue@v8@@@Nan@@@Z 10005c80 f   node_lame.obj
 0001:00004d70       ?node_lame_get_highpassfreq@nodelame@@YAXABV?$FunctionCallbackInfo@VValue@v8@@@Nan@@@Z 10005d70 f   node_lame.obj
 0001:00004e30       ?node_lame_set_highpassfreq@nodelame@@YAXABV?$FunctionCallbackInfo@VValue@v8@@@Nan@@@Z 10005e30 f   node_lame.obj
 0001:00004f20       ?node_lame_get_highpasswidth@nodelame@@YAXABV?$FunctionCallbackInfo@VValue@v8@@@Nan@@@Z 10005f20 f   node_lame.obj
 0001:00004fe0       ?node_lame_set_highpasswidth@nodelame@@YAXABV?$FunctionCallbackInfo@VValue@v8@@@Nan@@@Z 10005fe0 f   node_lame.obj
 0001:000050d0       ?InitLame@nodelame@@YAXV?$Local@VObject@v8@@@v8@@@Z 100060d0 f   node_lame.obj
 0001:00006840       ??$New@VInteger@v8@@W4mpg123_errors@@@Nan@@YA?AV?$Local@VInteger@v8@@@v8@@W4mpg123_errors@@@Z 10007840 f i node_mpg123.obj
 0001:00006840       ??$New@VInteger@v8@@W4mpg123_enc_enum@@@Nan@@YA?AV?$Local@VInteger@v8@@@v8@@W4mpg123_enc_enum@@@Z 10007840 f i node_mpg123.obj
 0001:00006840       ??$New@VInteger@v8@@W4mpg123_channelcount@@@Nan@@YA?AV?$Local@VInteger@v8@@@v8@@W4mpg123_channelcount@@@Z 10007840 f i node_mpg123.obj
 0001:00006840       ??$New@VInteger@v8@@W4mpg123_channels@@@Nan@@YA?AV?$Local@VInteger@v8@@@v8@@W4mpg123_channels@@@Z 10007840 f i node_mpg123.obj
 0001:00006840       ??$New@VInteger@v8@@H@Nan@@YA?AV?$Local@VInteger@v8@@@v8@@H@Z 10007840 f i node_lame.obj
 0001:000068a0       ??$SetMethod@VObject@v8@@VLocal@2@@Nan@@YAXV?$Local@VObject@v8@@@v8@@PBDP6AXABV?$FunctionCallbackInfo@VValue@v8@@@0@@Z@Z 100078a0 f i node_lame.obj
 0001:00006930       ??$SetMethodAux@V?$Local@VObject@v8@@@v8@@@imp@Nan@@YAXV?$Local@VObject@v8@@@v8@@V?$Local@VString@v8@@@3@V?$Local@VFunctionTemplate@v8@@@3@ZZ 10007930 f i node_lame.obj
 0001:00006990       ?Set@Nan@@YA?AV?$Maybe@_N@v8@@V?$Local@VObject@v8@@@3@V?$Local@VValue@v8@@@3@1@Z 10007990 f i node_mpg123.obj
 0001:000069d0       ?node_mpg123_init@nodelame@@YAXABV?$FunctionCallbackInfo@VValue@v8@@@Nan@@@Z 100079d0 f   node_mpg123.obj
 0001:00006a70       ?node_mpg123_new@nodelame@@YAXABV?$FunctionCallbackInfo@VValue@v8@@@Nan@@@Z 10007a70 f   node_mpg123.obj
 0001:00006b20       ?node_mpg123_current_decoder@nodelame@@YAXABV?$FunctionCallbackInfo@VValue@v8@@@Nan@@@Z 10007b20 f   node_mpg123.obj
 0001:00006be0       ?node_mpg123_decoders@nodelame@@YAXABV?$FunctionCallbackInfo@VValue@v8@@@Nan@@@Z 10007be0 f   node_mpg123.obj
 0001:00006be0       ?node_mpg123_supported_decoders@nodelame@@YAXABV?$FunctionCallbackInfo@VValue@v8@@@Nan@@@Z 10007be0 f   node_mpg123.obj
 0001:00006cb0       ?node_mpg123_open_feed@nodelame@@YAXABV?$FunctionCallbackInfo@VValue@v8@@@Nan@@@Z 10007cb0 f   node_mpg123.obj
 0001:00006d90       ?node_mpg123_getformat@nodelame@@YAXABV?$FunctionCallbackInfo@VValue@v8@@@Nan@@@Z 10007d90 f   node_mpg123.obj
 0001:00007360       ?node_mpg123_safe_buffer@nodelame@@YAXABV?$FunctionCallbackInfo@VValue@v8@@@Nan@@@Z 10008360 f   node_mpg123.obj
 0001:000073b0       ?node_mpg123_outblock@nodelame@@YAXABV?$FunctionCallbackInfo@VValue@v8@@@Nan@@@Z 100083b0 f   node_mpg123.obj
 0001:00007480       ?node_mpg123_framepos@nodelame@@YAXABV?$FunctionCallbackInfo@VValue@v8@@@Nan@@@Z 10008480 f   node_mpg123.obj
 0001:00007540       ?node_mpg123_tell@nodelame@@YAXABV?$FunctionCallbackInfo@VValue@v8@@@Nan@@@Z 10008540 f   node_mpg123.obj
 0001:00007600       ?node_mpg123_tellframe@nodelame@@YAXABV?$FunctionCallbackInfo@VValue@v8@@@Nan@@@Z 10008600 f   node_mpg123.obj
 0001:000076e0       ?node_mpg123_tell_stream@nodelame@@YAXABV?$FunctionCallbackInfo@VValue@v8@@@Nan@@@Z 100086e0 f   node_mpg123.obj
 0001:000077b0       ?node_mpg123_feed@nodelame@@YAXABV?$FunctionCallbackInfo@VValue@v8@@@Nan@@@Z 100087b0 f   node_mpg123.obj
 0001:00007930       ?node_mpg123_feed_async@nodelame@@YAXPAUuv_work_s@@@Z 10008930 f   node_mpg123.obj
 0001:00007990       ?node_mpg123_feed_after@nodelame@@YAXPAUuv_work_s@@@Z 10008990 f   node_mpg123.obj
 0001:00007ad0       ?node_mpg123_read@nodelame@@YAXABV?$FunctionCallbackInfo@VValue@v8@@@Nan@@@Z 10008ad0 f   node_mpg123.obj
 0001:00007c60       ?node_mpg123_read_async@nodelame@@YAXPAUuv_work_s@@@Z 10008c60 f   node_mpg123.obj
 0001:00007ca0       ?node_mpg123_read_after@nodelame@@YAXPAUuv_work_s@@@Z 10008ca0 f   node_mpg123.obj
 0001:00007ea0       ?node_mpg123_id3@nodelame@@YAXABV?$FunctionCallbackInfo@VValue@v8@@@Nan@@@Z 10008ea0 f   node_mpg123.obj
 0001:00007f80       ?node_mpg123_id3_async@nodelame@@YAXPAUuv_work_s@@@Z 10008f80 f   node_mpg123.obj
 0001:00007fb0       ?node_mpg123_id3_after@nodelame@@YAXPAUuv_work_s@@@Z 10008fb0 f   node_mpg123.obj
 0001:000094a0       ?InitMPG123@nodelame@@YAXV?$Local@VObject@v8@@@v8@@@Z 1000a4a0 f   node_mpg123.obj
 0001:0000b9e0       ??$New@VInteger@v8@@D@Nan@@YA?AV?$Local@VInteger@v8@@@v8@@D@Z 1000c9e0 f i node_mpg123.obj
 0001:0000ba50       ??$New@VInteger@v8@@E@Nan@@YA?AV?$Local@VInteger@v8@@@v8@@E@Z 1000ca50 f i node_mpg123.obj
 0001:0000c300       _lame_init_params          1000d300 f   libmp3lame:lame.obj
 0001:0000db40       _lame_print_config         1000eb40 f   libmp3lame:lame.obj
 0001:0000de00       _lame_print_internals      1000ee00 f   libmp3lame:lame.obj
 0001:0000eaf0       _lame_encode_flush_nogap   1000faf0 f   libmp3lame:lame.obj
 0001:0000eb70       _lame_close                1000fb70 f   libmp3lame:lame.obj
 0001:0000ee40       ___local_stdio_printf_options 1000fe40 f i libmp3lame:id3tag.obj
 0001:0000ee50       _sprintf                   1000fe50 f i libmp3lame:id3tag.obj
 0001:0000f600       _lame_get_id3v2_tag        10010600 f   libmp3lame:id3tag.obj
 0001:0000f8b0       _id3tag_write_v2           100108b0 f   libmp3lame:id3tag.obj
 0001:0000f980       _lame_get_id3v1_tag        10010980 f   libmp3lame:id3tag.obj
 0001:0000fe70       _CRC_writeheader           10010e70 f   libmp3lame:bitstream.obj
 0001:00010bc0       _compute_flushbits         10011bc0 f   libmp3lame:bitstream.obj
 0001:00010ca0       _add_dummy_byte            10011ca0 f   libmp3lame:bitstream.obj
 0001:00010d40       _format_bitstream          10011d40 f   libmp3lame:bitstream.obj
 0001:00010f00       _copy_buffer               10011f00 f   libmp3lame:bitstream.obj
 0001:00010fa0       _init_bit_stream_w         10011fa0 f   libmp3lame:bitstream.obj
 0001:00011ee0       _apply_preset              10012ee0 f   libmp3lame:presets.obj
 0001:00014540       _L3psycho_anal_vbr         10015540 f   libmp3lame:psymodel.obj
 0001:00015a10       _psymodel_init             10016a10 f   libmp3lame:psymodel.obj
 0001:000166b0       _free_id3tag               100176b0 f   libmp3lame:util.obj
 0001:000167a0       _freegfc                   100177a0 f   libmp3lame:util.obj
 0001:00016a30       _ATHformula                10017a30 f   libmp3lame:util.obj
 0001:00016c50       _FindNearestBitrate        10017c50 f   libmp3lame:util.obj
 0001:00016cc0       _map2MP3Frequency          10017cc0 f   libmp3lame:util.obj
 0001:00016d40       _BitrateIndex              10017d40 f   libmp3lame:util.obj
 0001:00016d80       _SmpFrqIndex               10017d80 f   libmp3lame:util.obj
 0001:00017640       _fill_buffer               10018640 f   libmp3lame:util.obj
 0001:00017750       _lame_report_def           10018750 f   libmp3lame:util.obj
 0001:00017790       _lame_msgf                 10018790 f   libmp3lame:util.obj
 0001:000177c0       _lame_errorf               100187c0 f   libmp3lame:util.obj
 0001:000177f0       _init_log_table            100187f0 f   libmp3lame:util.obj
 0001:00017e00       _iteration_init            10018e00 f   libmp3lame:quantize_pvt.obj
 0001:00018360       _on_pe                     10019360 f   libmp3lame:quantize_pvt.obj
 0001:000185c0       _athAdjust                 100195c0 f   libmp3lame:quantize_pvt.obj
 0001:00018720       _calc_xmin                 10019720 f   libmp3lame:quantize_pvt.obj
 0001:00018fe0       _calc_noise                10019fe0 f   libmp3lame:quantize_pvt.obj
 0001:000199e0       _set_frame_pinfo           1001a9e0 f   libmp3lame:quantize_pvt.obj
 0001:00019c40       _InitVbrTag                1001ac40 f   libmp3lame:VbrTag.obj
 0001:0001c1c0       _VBR_old_iteration_loop    1001d1c0 f   libmp3lame:quantize.obj
 0001:0001c780       _VBR_new_iteration_loop    1001d780 f   libmp3lame:quantize.obj
 0001:0001ce70       _ABR_iteration_loop        1001de70 f   libmp3lame:quantize.obj
 0001:0001d170       _CBR_iteration_loop        1001e170 f   libmp3lame:quantize.obj
 0001:0001d7a0       _InitGainAnalysis          1001e7a0 f   libmp3lame:gain_analysis.obj
 0001:0001d800       _AnalyzeSamples            1001e800 f   libmp3lame:gain_analysis.obj
 0001:0001e230       _GetTitleGain              1001f230 f   libmp3lame:gain_analysis.obj
 0001:0001e710       _lame_encode_mp3_frame     1001f710 f   libmp3lame:encoder.obj
 0001:0001fac0       _noquant_count_bits        10020ac0 f   libmp3lame:takehiro.obj
 0001:0001fd50       _count_bits                10020d50 f   libmp3lame:takehiro.obj
 0001:00020260       _best_huffman_divide       10021260 f   libmp3lame:takehiro.obj
 0001:00020620       _best_scalefac_store       10021620 f   libmp3lame:takehiro.obj
 0001:00020cd0       _huffman_init              10021cd0 f   libmp3lame:takehiro.obj
 0001:00021160       _fft_short                 10022160 f   libmp3lame:fft.obj
 0001:00021310       _fft_long                  10022310 f   libmp3lame:fft.obj
 0001:00021470       _init_fft                  10022470 f   libmp3lame:fft.obj
 0001:000215b0       _ResvFrameBegin            100225b0 f   libmp3lame:reservoir.obj
 0001:000216a0       _ResvMaxBits               100226a0 f   libmp3lame:reservoir.obj
 0001:00021780       _ResvFrameEnd              10022780 f   libmp3lame:reservoir.obj
 0001:000235d0       _VBR_encode_frame          100245d0 f   libmp3lame:vbrquantize.obj
 0001:00025990       _mdct_sub48                10026990 f   libmp3lame:newmdct.obj
 0001:00026560       _fprintf                   10027560 f i libmpg123:libmpg123.obj
 0001:00026700       _mpg123_parnew             10027700 f   libmpg123:libmpg123.obj
 0001:00026780       _INT123_decode_update      10027780 f   libmpg123:libmpg123.obj
 0001:00026c80       _mpg123_decode             10027c80 f   libmpg123:libmpg123.obj
 0001:00026d90       _mpg123_tell               10027d90 f   libmpg123:libmpg123.obj
 0001:00026e60       _mpg123_id3                10027e60 f   libmpg123:libmpg123.obj
 0001:00026ee0       _mpg123_close              10027ee0 f   libmpg123:libmpg123.obj
 0001:00026f80       _mpg123_resize_string      10027f80 f   libmpg123:stringbuf.obj
 0001:00026ff0       _mpg123_strlen             10027ff0 f   libmpg123:stringbuf.obj
 0001:00027140       _INT123_set_synth_functions 10028140 f   libmpg123:optimize.obj
 0001:000272d0       _INT123_frame_cpu_opt      100282d0 f   libmpg123:optimize.obj
 0001:000274b0       _INT123_frame_init_par     100284b0 f   libmpg123:frame.obj
 0001:00027720       _INT123_frame_outbuffer    10028720 f   libmpg123:frame.obj
 0001:00027810       _INT123_frame_buffers      10028810 f   libmpg123:frame.obj
 0001:000279c0       _INT123_frame_buffers_reset 100289c0 f   libmpg123:frame.obj
 0001:00027d70       _INT123_frame_exit         10028d70 f   libmpg123:frame.obj
 0001:00027fe0       _INT123_frame_index_find   10028fe0 f   libmpg123:frame.obj
 0001:00028090       _INT123_frame_outs         10029090 f   libmpg123:frame.obj
 0001:00028120       _INT123_frame_expect_outsamples 10029120 f   libmpg123:frame.obj
 0001:000281b0       _INT123_frame_offset       100291b0 f   libmpg123:frame.obj
 0001:00028260       _INT123_frame_gapless_init 10029260 f   libmpg123:frame.obj
 0001:00028300       _INT123_frame_gapless_realinit 10029300 f   libmpg123:frame.obj
 0001:00028450       _INT123_frame_set_frameseek 10029450 f   libmpg123:frame.obj
 0001:00028530       _INT123_do_rva             10029530 f   libmpg123:frame.obj
 0001:00028690       _INT123_fi_resize          10029690 f   libmpg123:index.obj
 0001:00028760       _INT123_fi_add             10029760 f   libmpg123:index.obj
 0001:000287f0       _INT123_init_id3           100297f0 f   libmpg123:id3.obj
 0001:00028a90       _INT123_id3_link           10029a90 f   libmpg123:id3.obj
 0001:00028ca0       _INT123_id3_to_utf8        10029ca0 f   libmpg123:id3.obj
 0001:00029c70       _INT123_parse_new_id3      1002ac70 f   libmpg123:id3.obj
 0001:0002ace0       _INT123_frame_output_format 1002bce0 f   libmpg123:format.obj
 0001:0002b050       _mpg123_fmt_all            1002c050 f   libmpg123:format.obj
 0001:0002b0e0       _samples_to_storage        1002c0e0 f   libmpg123:format.obj
 0001:0002b160       _postprocess_buffer        1002c160 f   libmpg123:format.obj
 0001:0002bf60       _INT123_feed_more          1002cf60 f   libmpg123:readers.obj
 0001:0002c3e0       _INT123_open_bad           1002d3e0 f   libmpg123:readers.obj
 0001:0002c460       _INT123_open_feed          1002d460 f   libmpg123:readers.obj
 0001:0002c4e0       _INT123_init_layer12       1002d4e0 f   libmpg123:layer2.obj
 0001:0002c630       _INT123_init_layer12_stuff 1002d630 f   libmpg123:layer2.obj
 0001:0002c670       _INT123_init_layer12_table 1002d670 f   libmpg123:layer2.obj
 0001:0002d6f0       _INT123_do_layer2          1002e6f0 f   libmpg123:layer2.obj
 0001:0002d860       _INT123_synth_ntom_set_step 1002e860 f   libmpg123:ntom.obj
 0001:0002d970       _INT123_ntom_val           1002e970 f   libmpg123:ntom.obj
 0001:0002d9f0       _INT123_ntom_frame_outsamples 1002e9f0 f   libmpg123:ntom.obj
 0001:0002da50       _INT123_ntom_frmouts       1002ea50 f   libmpg123:ntom.obj
 0001:0002daf0       _INT123_ntom_ins2outs      1002eaf0 f   libmpg123:ntom.obj
 0001:0002dba0       _INT123_ntom_frameoff      1002eba0 f   libmpg123:ntom.obj
 0001:0002dc40       _INT123_init_layer3        1002ec40 f   libmpg123:layer3.obj
 0001:0002e890       _INT123_init_layer3_stuff  1002f890 f   libmpg123:layer3.obj
 0001:00031950       _INT123_dct36              10032950 f   libmpg123:layer3.obj
 0001:00032960       _INT123_do_layer3          10033960 f   libmpg123:layer3.obj
 0001:00032ea0       ___local_stdio_scanf_options 10033ea0 f i libmpg123:parse.obj
 0001:00032eb0       _sscanf                    10033eb0 f i libmpg123:parse.obj
 0001:00033910       _INT123_read_frame         10034910 f   libmpg123:parse.obj
 0001:000342a0       _INT123_compute_bpf        100352a0 f   libmpg123:parse.obj
 0001:00034aa0       _INT123_prepare_decode_tables 10035aa0 f   libmpg123:tabinit.obj
 0001:00034c10       _INT123_make_decode_tables 10035c10 f   libmpg123:tabinit.obj
 0001:00034d40       _INT123_make_conv16to8_table 10035d40 f   libmpg123:tabinit.obj
 0001:00035110       _INT123_synth_1to1_s32     10036110 f   libmpg123:synth_s32.obj
 0001:000354f0       _INT123_synth_1to1_s32_mono 100364f0 f   libmpg123:synth_s32.obj
 0001:000355a0       _INT123_synth_1to1_s32_m2s 100365a0 f   libmpg123:synth_s32.obj
 0001:000355f0       _INT123_synth_1to1_s32_i386 100365f0 f   libmpg123:synth_s32.obj
 0001:00035ab0       _INT123_synth_2to1_s32     10036ab0 f   libmpg123:synth_s32.obj
 0001:00035ea0       _INT123_synth_2to1_s32_mono 10036ea0 f   libmpg123:synth_s32.obj
 0001:00035f50       _INT123_synth_2to1_s32_m2s 10036f50 f   libmpg123:synth_s32.obj
 0001:00035f90       _INT123_synth_2to1_s32_i386 10036f90 f   libmpg123:synth_s32.obj
 0001:00036460       _INT123_synth_4to1_s32     10037460 f   libmpg123:synth_s32.obj
 0001:00036860       _INT123_synth_4to1_s32_mono 10037860 f   libmpg123:synth_s32.obj
 0001:00036910       _INT123_synth_4to1_s32_m2s 10037910 f   libmpg123:synth_s32.obj
 0001:00036980       _INT123_synth_4to1_s32_i386 10037980 f   libmpg123:synth_s32.obj
 0001:00036e50       _INT123_synth_ntom_s32_mono 10037e50 f   libmpg123:synth_s32.obj
 0001:00036f10       _INT123_synth_ntom_s32_m2s 10037f10 f   libmpg123:synth_s32.obj
 0001:00036f70       _INT123_synth_ntom_s32     10037f70 f   libmpg123:synth_s32.obj
 0001:00037490       _INT123_synth_1to1         10038490 f   libmpg123:synth.obj
 0001:00037880       _INT123_synth_1to1_mono    10038880 f   libmpg123:synth.obj
 0001:00037930       _INT123_synth_1to1_m2s     10038930 f   libmpg123:synth.obj
 0001:00037980       _INT123_synth_1to1_i386    10038980 f   libmpg123:synth.obj
 0001:00037de0       _INT123_synth_2to1         10038de0 f   libmpg123:synth.obj
 0001:000381e0       _INT123_synth_2to1_mono    100391e0 f   libmpg123:synth.obj
 0001:00038280       _INT123_synth_2to1_m2s     10039280 f   libmpg123:synth.obj
 0001:000382d0       _INT123_synth_2to1_i386    100392d0 f   libmpg123:synth.obj
 0001:00038730       _INT123_synth_4to1         10039730 f   libmpg123:synth.obj
 0001:00038b30       _INT123_synth_4to1_mono    10039b30 f   libmpg123:synth.obj
 0001:00038bf0       _INT123_synth_4to1_m2s     10039bf0 f   libmpg123:synth.obj
 0001:00038c70       _INT123_synth_4to1_i386    10039c70 f   libmpg123:synth.obj
 0001:000390e0       _INT123_synth_ntom_mono    1003a0e0 f   libmpg123:synth.obj
 0001:000391a0       _INT123_synth_ntom_m2s     1003a1a0 f   libmpg123:synth.obj
 0001:00039210       _INT123_synth_ntom         1003a210 f   libmpg123:synth.obj
 0001:00039760       _INT123_synth_1to1_real    1003a760 f   libmpg123:synth_real.obj
 0001:00039ad0       _INT123_synth_1to1_real_mono 1003aad0 f   libmpg123:synth_real.obj
 0001:00039bb0       _INT123_synth_1to1_real_m2s 1003abb0 f   libmpg123:synth_real.obj
 0001:00039c30       _INT123_synth_1to1_real_i386 1003ac30 f   libmpg123:synth_real.obj
 0001:0003a010       _INT123_synth_2to1_real    1003b010 f   libmpg123:synth_real.obj
 0001:0003a380       _INT123_synth_2to1_real_mono 1003b380 f   libmpg123:synth_real.obj
 0001:0003a460       _INT123_synth_2to1_real_m2s 1003b460 f   libmpg123:synth_real.obj
 0001:0003a4e0       _INT123_synth_2to1_real_i386 1003b4e0 f   libmpg123:synth_real.obj
 0001:0003a8c0       _INT123_synth_4to1_real    1003b8c0 f   libmpg123:synth_real.obj
 0001:0003ac30       _INT123_synth_4to1_real_mono 1003bc30 f   libmpg123:synth_real.obj
 0001:0003ad00       _INT123_synth_4to1_real_m2s 1003bd00 f   libmpg123:synth_real.obj
 0001:0003ad70       _INT123_synth_4to1_real_i386 1003bd70 f   libmpg123:synth_real.obj
 0001:0003b150       _INT123_synth_ntom_real_mono 1003c150 f   libmpg123:synth_real.obj
 0001:0003b210       _INT123_synth_ntom_real_m2s 1003c210 f   libmpg123:synth_real.obj
 0001:0003b270       _INT123_synth_ntom_real    1003c270 f   libmpg123:synth_real.obj
 0001:0003b690       _INT123_synth_1to1_8bit    1003c690 f   libmpg123:synth_8bit.obj
 0001:0003ba90       _INT123_synth_1to1_8bit_mono 1003ca90 f   libmpg123:synth_8bit.obj
 0001:0003bb20       _INT123_synth_1to1_8bit_m2s 1003cb20 f   libmpg123:synth_8bit.obj
 0001:0003bb60       _INT123_synth_1to1_8bit_i386 1003cb60 f   libmpg123:synth_8bit.obj
 0001:0003c050       _INT123_synth_1to1_8bit_wrap 1003d050 f   libmpg123:synth_8bit.obj
 0001:0003c160       _INT123_synth_1to1_8bit_wrap_mono 1003d160 f   libmpg123:synth_8bit.obj
 0001:0003c260       _INT123_synth_1to1_8bit_wrap_m2s 1003d260 f   libmpg123:synth_8bit.obj
 0001:0003c330       _INT123_synth_2to1_8bit    1003d330 f   libmpg123:synth_8bit.obj
 0001:0003c730       _INT123_synth_2to1_8bit_mono 1003d730 f   libmpg123:synth_8bit.obj
 0001:0003c7c0       _INT123_synth_2to1_8bit_m2s 1003d7c0 f   libmpg123:synth_8bit.obj
 0001:0003c800       _INT123_synth_2to1_8bit_i386 1003d800 f   libmpg123:synth_8bit.obj
 0001:0003cd00       _INT123_synth_4to1_8bit    1003dd00 f   libmpg123:synth_8bit.obj
 0001:0003d110       _INT123_synth_4to1_8bit_mono 1003e110 f   libmpg123:synth_8bit.obj
 0001:0003d1c0       _INT123_synth_4to1_8bit_m2s 1003e1c0 f   libmpg123:synth_8bit.obj
 0001:0003d230       _INT123_synth_4to1_8bit_i386 1003e230 f   libmpg123:synth_8bit.obj
 0001:0003d740       _INT123_synth_ntom_8bit_mono 1003e740 f   libmpg123:synth_8bit.obj
 0001:0003d800       _INT123_synth_ntom_8bit_m2s 1003e800 f   libmpg123:synth_8bit.obj
 0001:0003d860       _INT123_synth_ntom_8bit    1003e860 f   libmpg123:synth_8bit.obj
 0001:0003e620       _INT123_do_layer1          1003f620 f   libmpg123:layer1.obj
 0001:0003e710       _INT123_do_equalizer       1003f710 f   libmpg123:equalizer.obj
 0001:0003e7b0       _INT123_dct64              1003f7b0 f   libmpg123:dct64.obj
 0001:0003ff56       __imp_load_?GetCurrent@Isolate@v8@@SAPAV12@XZ 10040f56 f   node:node.exe
 0001:0003ff60       __tailMerge_node_exe       10040f60 f i node:node.exe
 0001:0003ff71       __imp_load_??1HandleScope@v8@@QAE@XZ 10040f71 f   node:node.exe
 0001:0003ff7b       __imp_load_??0HandleScope@v8@@QAE@PAVIsolate@1@@Z 10040f7b f   node:node.exe
 0001:0003ff85       __imp_load__node_module_register 10040f85 f   node:node.exe
 0001:0003ff8f       __imp_load__uv_queue_work  10040f8f f   node:node.exe
 0001:0003ff99       __imp_load_?Global@Context@v8@@QAE?AV?$Local@VObject@v8@@@2@XZ 10040f99 f   node:node.exe
 0001:0003ffa3       __imp_load_?Value@External@v8@@QBEPAXXZ 10040fa3 f   node:node.exe
 0001:0003ffad       __imp_load_?New@External@v8@@SA?AV?$Local@VExternal@v8@@@2@PAVIsolate@2@PAX@Z 10040fad f   node:node.exe
 0001:0003ffb7       __imp_load_?NewFromUnsigned@Integer@v8@@SA?AV?$Local@VInteger@v8@@@2@PAVIsolate@2@I@Z 10040fb7 f   node:node.exe
 0001:0003ffc1       __imp_load_?New@Integer@v8@@SA?AV?$Local@VInteger@v8@@@2@PAVIsolate@2@H@Z 10040fc1 f   node:node.exe
 0001:0003ffcb       __imp_load_?GetCurrentContext@Isolate@v8@@QAE?AV?$Local@VContext@v8@@@2@XZ 10040fcb f   node:node.exe
 0001:0003ffd5       __imp_load_?CreateHandle@HandleScope@v8@@KAPAPAVObject@internal@2@PAVIsolate@42@PAV342@@Z 10040fd5 f   node:node.exe
 0001:0003ffdf       __imp_load_?CreateHandle@HandleScope@v8@@CAPAPAVObject@internal@2@PAVHeapObject@42@PAV342@@Z 10040fdf f   node:node.exe
 0001:0003ffe9       __imp_load_?New@Array@v8@@SA?AV?$Local@VArray@v8@@@2@PAVIsolate@2@H@Z 10040fe9 f   node:node.exe
 0001:0003fff3       __imp_load_?SetClassName@FunctionTemplate@v8@@QAEXV?$Local@VString@v8@@@2@@Z 10040ff3 f   node:node.exe
 0001:0003ffff       __imp_load_?GetFunction@FunctionTemplate@v8@@QAE?AV?$MaybeLocal@VFunction@v8@@@2@V?$Local@VContext@v8@@@2@@Z 10040fff f   node:node.exe
 0001:00040009       __imp_load_?New@FunctionTemplate@v8@@SA?AV?$Local@VFunctionTemplate@v8@@@2@PAVIsolate@2@P6AXABV?$FunctionCallbackInfo@VValue@v8@@@2@@ZV?$Local@VValue@v8@@@2@V?$Local@VSignature@v8@@@2@H@Z 10041009 f   node:node.exe
 0001:00040013       __imp_load_?ToLocalEmpty@V8@v8@@CAXXZ 10041013 f   node:node.exe
 0001:0004001d       __imp_load_?DisposeGlobal@V8@v8@@CAXPAPAVObject@internal@2@@Z 1004101d f   node:node.exe
 0001:00040027       __imp_load_?GlobalizeReference@V8@v8@@CAPAPAVObject@internal@2@PAVIsolate@42@PAPAV342@@Z 10041027 f   node:node.exe
 0001:00040031       __imp_load_?Int32Value@Value@v8@@QBE?AV?$Maybe@H@2@V?$Local@VContext@v8@@@2@@Z 10041031 f   node:node.exe
 0001:0004003b       __imp_load_?Int32Value@Value@v8@@QBEHXZ 1004103b f   node:node.exe
 0001:00040045       __imp_load_?NumberValue@Value@v8@@QBENXZ 10041045 f   node:node.exe
 0001:0004004f       __imp_load_?ToInteger@Value@v8@@QBE?AV?$MaybeLocal@VInteger@v8@@@2@V?$Local@VContext@v8@@@2@@Z 1004104f f   node:node.exe
 0001:00040059       __imp_load_?HasCaught@TryCatch@v8@@QBE_NXZ 10041059 f   node:node.exe
 0001:00040063       __imp_load_??1TryCatch@v8@@QAE@XZ 10041063 f   node:node.exe
 0001:0004006d       __imp_load_??0TryCatch@v8@@QAE@PAVIsolate@1@@Z 1004106d f   node:node.exe
 0001:00040077       __imp_load_?Escape@EscapableHandleScope@v8@@AAEPAPAVObject@internal@2@PAPAV342@@Z 10041077 f   node:node.exe
 0001:00040081       __imp_load_??0EscapableHandleScope@v8@@QAE@PAVIsolate@1@@Z 10041081 f   node:node.exe
 0001:0004008b       __imp_load_?NewFromUtf8@String@v8@@SA?AV?$MaybeLocal@VString@v8@@@2@PAVIsolate@2@PBDW4NewStringType@2@H@Z 1004108b f   node:node.exe
 0001:00040095       __imp_load_?New@Number@v8@@SA?AV?$Local@VNumber@v8@@@2@PAVIsolate@2@N@Z 10041095 f   node:node.exe
 0001:0004009f       __imp_load_?SlowGetInternalField@Object@v8@@AAE?AV?$Local@VValue@v8@@@2@H@Z 1004109f f   node:node.exe
 0001:000400a9       __imp_load_?SetInternalField@Object@v8@@QAEXHV?$Local@VValue@v8@@@2@@Z 100410a9 f   node:node.exe
 0001:000400b3       __imp_load_?ForceSet@Object@v8@@QAE?AV?$Maybe@_N@2@V?$Local@VContext@v8@@@2@V?$Local@VValue@v8@@@2@1W4PropertyAttribute@2@@Z 100410b3 f   node:node.exe
 0001:000400bd       __imp_load_?Set@Object@v8@@QAE_NV?$Local@VValue@v8@@@2@0@Z 100410bd f   node:node.exe
 0001:000400c7       __imp_load_?Set@Object@v8@@QAE?AV?$Maybe@_N@2@V?$Local@VContext@v8@@@2@IV?$Local@VValue@v8@@@2@@Z 100410c7 f   node:node.exe
 0001:000400d1       __imp_load_?Call@Function@v8@@QAE?AV?$Local@VValue@v8@@@2@V32@HQAV32@@Z 100410d1 f   node:node.exe
 0001:000400db       __imp_load_?SetInternalFieldCount@ObjectTemplate@v8@@QAEXH@Z 100410db f   node:node.exe
 0001:000400e5       __imp_load_?NewInstance@ObjectTemplate@v8@@QAE?AV?$MaybeLocal@VObject@v8@@@2@V?$Local@VContext@v8@@@2@@Z 100410e5 f   node:node.exe
 0001:000400ef       __imp_load_?New@ObjectTemplate@v8@@SA?AV?$Local@VObjectTemplate@v8@@@2@PAVIsolate@2@V?$Local@VFunctionTemplate@v8@@@2@@Z 100410ef f   node:node.exe
 0001:000400f9       __imp_load_?FatalException@node@@YAXPAVIsolate@v8@@ABVTryCatch@3@@Z 100410f9 f   node:node.exe
 0001:00040103       __imp_load_?HasInstance@Buffer@node@@YA_NV?$Local@VValue@v8@@@v8@@@Z 10041103 f   node:node.exe
 0001:0004010d       __imp_load_?New@Buffer@node@@YA?AV?$MaybeLocal@VObject@v8@@@v8@@PAVIsolate@4@PADIP6AX1PAX@Z2@Z 1004110d f   node:node.exe
 0001:00040117       __imp_load_?Data@Buffer@node@@YAPADV?$Local@VObject@v8@@@v8@@@Z 10041117 f   node:node.exe
 0001:00040121       __imp_load_?Length@Buffer@node@@YAIV?$Local@VObject@v8@@@v8@@@Z 10041121 f   node:node.exe
 0001:0004012b       __imp_load__uv_default_loop 1004112b f   node:node.exe
 0001:00040135       __imp_load_?ToObject@Value@v8@@QBE?AV?$Local@VObject@v8@@@2@XZ 10041135 f   node:node.exe
 0001:0004013f       __imp_load_?New@Object@v8@@SA?AV?$Local@VObject@v8@@@2@PAVIsolate@2@@Z 1004113f f   node:node.exe
 0001:00040149       __imp_load_?Set@Object@v8@@QAE?AV?$Maybe@_N@2@V?$Local@VContext@v8@@@2@V?$Local@VValue@v8@@@2@1@Z 10041149 f   node:node.exe
 0001:00040153       @__security_check_cookie@4 10041153 f   LIBCMT:_secchk_.obj
 0001:00040164       ??2@YAPAXI@Z               10041164 f   LIBCMT:new_scalar.obj
 0001:00040197       ??3@YAXPAXI@Z              10041197 f   LIBCMT:delete_scalar_size.obj
 0001:000404ad       __DllMainCRTStartup@12     100414ad f   LIBCMT:dll_dllmain.obj
 0001:000404d0       ___raise_securityfailure   100414d0 f   LIBCMT:gs_report.obj
 0001:000404f8       ___report_gsfailure        100414f8 f   LIBCMT:gs_report.obj
 0001:000405f3       ??0bad_alloc@std@@QAE@ABV01@@Z 100415f3 f i LIBCMT:throw_bad_alloc.obj
 0001:0004060e       ??0bad_alloc@std@@QAE@XZ   1004160e f i LIBCMT:throw_bad_alloc.obj
 0001:00040626       ??0bad_array_new_length@std@@QAE@ABV01@@Z 10041626 f i LIBCMT:throw_bad_alloc.obj
 0001:00040641       ??0bad_array_new_length@std@@QAE@XZ 10041641 f i LIBCMT:throw_bad_alloc.obj
 0001:00040659       ??0exception@std@@QAE@ABV01@@Z 10041659 f i LIBCMT:throw_bad_alloc.obj
 0001:00040685       ??1bad_array_new_length@std@@UAE@XZ 10041685 f i LIBCMT:throw_bad_alloc.obj
 0001:00040685       ??1bad_alloc@std@@UAE@XZ   10041685 f i LIBCMT:throw_bad_alloc.obj
 0001:00040696       ??_Gbad_alloc@std@@UAEPAXI@Z 10041696 f i LIBCMT:throw_bad_alloc.obj
 0001:00040696       ??_Gexception@std@@UAEPAXI@Z 10041696 f i LIBCMT:throw_bad_alloc.obj
 0001:00040696       ??_Ebad_array_new_length@std@@UAEPAXI@Z 10041696 f i LIBCMT:throw_bad_alloc.obj
 0001:00040696       ??_Gbad_array_new_length@std@@UAEPAXI@Z 10041696 f i LIBCMT:throw_bad_alloc.obj
 0001:00040696       ??_Eexception@std@@UAEPAXI@Z 10041696 f i LIBCMT:throw_bad_alloc.obj
 0001:00040696       ??_Ebad_alloc@std@@UAEPAXI@Z 10041696 f i LIBCMT:throw_bad_alloc.obj
 0001:000406c3       ?__scrt_throw_std_bad_alloc@@YAXXZ 100416c3 f   LIBCMT:throw_bad_alloc.obj
 0001:000406e0       ?__scrt_throw_std_bad_array_new_length@@YAXXZ 100416e0 f   LIBCMT:throw_bad_alloc.obj
 0001:000406fd       ?what@exception@std@@UBEPBDXZ 100416fd f i LIBCMT:throw_bad_alloc.obj
 0001:0004070a       ??3@YAXPAX@Z               1004170a f   LIBCMT:delete_scalar.obj
 0001:0004070f       ??$__crt_fast_encode_pointer@PAX@@YAPAXQAX@Z 1004170f f i libvcruntime:winapi_downlevel.obj
 0001:0004070f       ??$__crt_fast_encode_pointer@PAP6AXXZ@@YAPAP6AXXZQAP6AXXZ@Z 1004170f f i LIBCMT:utility.obj
 0001:00040770       ___scrt_acquire_startup_lock 10041770 f   LIBCMT:utility.obj
 0001:000407a5       ___scrt_dllmain_after_initialize_c 100417a5 f   LIBCMT:utility.obj
 0001:000407d0       ___scrt_dllmain_before_initialize_c 100417d0 f   LIBCMT:utility.obj
 0001:000407de       ___scrt_dllmain_crt_thread_attach 100417de f   LIBCMT:utility.obj
 0001:000407fd       ___scrt_dllmain_crt_thread_detach 100417fd f   LIBCMT:utility.obj
 0001:0004080a       ___scrt_dllmain_exception_filter 1004180a f   LIBCMT:utility.obj
 0001:0004083d       ___scrt_dllmain_uninitialize_c 1004183d f   LIBCMT:utility.obj
 0001:00040860       ___scrt_dllmain_uninitialize_critical 10041860 f   LIBCMT:utility.obj
 0001:0004086d       ___scrt_initialize_crt     1004186d f   LIBCMT:utility.obj
 0001:000408a6       ___scrt_initialize_onexit_tables 100418a6 f   LIBCMT:utility.obj
 0001:0004093d       ___scrt_is_nonwritable_in_current_image 1004193d f   LIBCMT:utility.obj
 0001:000409c7       ___scrt_release_startup_lock 100419c7 f   LIBCMT:utility.obj
 0001:000409e4       ___scrt_uninitialize_crt   100419e4 f   LIBCMT:utility.obj
 0001:00040a0c       __onexit                   10041a0c f   LIBCMT:utility.obj
 0001:00040a47       _atexit                    10041a47 f   LIBCMT:utility.obj
 0001:00040a5c       ___security_init_cookie    10041a5c f   LIBCMT:gs_support.obj
 0001:00040af8       _DllMain@12                10041af8 f   LIBCMT:dll_dllmain_stub.obj
 0001:00040afe       ?__scrt_initialize_type_info@@YAXXZ 10041afe f   LIBCMT:tncleanup.obj
 0001:00040b0a       ?__scrt_uninitialize_type_info@@YAXXZ 10041b0a f   LIBCMT:tncleanup.obj
 0001:00040b16       ___scrt_initialize_default_local_stdio_options 10041b16 f   LIBCMT:default_local_stdio_options.obj
 0001:00040b33       ___scrt_get_dyn_tls_init_callback 10041b33 f   LIBCMT:dyn_tls_init.obj
 0001:00040b39       ___scrt_fastfail           10041b39 f   LIBCMT:utility_desktop.obj
 0001:00040c54       __crt_debugger_hook        10041c54 f   LIBCMT:utility_desktop.obj
 0001:00040c5c       __RTC_Initialize           10041c5c f   LIBCMT:_initsect_.obj
 0001:00040c87       __RTC_Terminate            10041c87 f   LIBCMT:_initsect_.obj
 0001:00040cb2       @_guard_check_icall@4      10041cb2 f i LIBCMT:checkcfg.obj
 0001:00040cc0       __SEH_prolog4              10041cc0 f   LIBCMT:_sehprolg4_.obj
 0001:00040d06       __SEH_epilog4              10041d06 f   LIBCMT:_sehprolg4_.obj
 0001:00040d1b       ??_Gtype_info@@UAEPAXI@Z   10041d1b f i LIBCMT:std_type_info_static.obj
 0001:00040d1b       ??_Etype_info@@UAEPAXI@Z   10041d1b f i LIBCMT:std_type_info_static.obj
 0001:00040d3e       ___isa_available_init      10041d3e f   LIBCMT:_cpu_disp_.obj
 0001:00040ed8       __get_startup_argv_mode    10041ed8 f   LIBCMT:argv_mode.obj
 0001:00040edc       ___scrt_is_ucrt_dll_in_use 10041edc f   LIBCMT:ucrt_detection.obj
 0001:00040ef0       _strchr                    10041ef0 f   libvcruntime:strchr.obj
 0001:00040f5e       ___from_strstr_to_strchr   10041f5e     libvcruntime:strchr.obj
 0001:00041020       _memmove                   10042020 f   libvcruntime:memmove.obj
 0001:000415e0       __except_handler4          100425e0 f   libvcruntime:_chandler4_.obj
 0001:00041746       ___std_exception_copy      10042746 f   libvcruntime:std_exception.obj
 0001:000417a9       ___std_exception_destroy   100427a9 f   libvcruntime:std_exception.obj
 0001:000417c8       __CxxThrowException@8      100427c8 f   libvcruntime:throw.obj
 0001:00041836       ___vcrt_initialize         10042836 f   libvcruntime:initialization.obj
 0001:0004185f       ___vcrt_thread_attach      1004285f f   libvcruntime:initialization.obj
 0001:0004186a       ___vcrt_thread_detach      1004286a f   libvcruntime:initialization.obj
 0001:00041875       ___vcrt_uninitialize       10042875 f   libvcruntime:initialization.obj
 0001:00041894       ___vcrt_uninitialize_critical 10042894 f   libvcruntime:initialization.obj
 0001:0004189c       ___std_type_info_destroy_list 1004289c f   libvcruntime:std_type_info.obj
 0001:000418c0       _memset                    100428c0 f   libvcruntime:memset.obj
 0001:00041a20       __local_unwind4            10042a20 f   libvcruntime:_exsup4_.obj
 0001:00041af6       __seh_longjmp_unwind4@4    10042af6 f   libvcruntime:_exsup4_.obj
 0001:00041b1e       @_EH4_CallFilterFunc@8     10042b1e f   libvcruntime:_exsup4_.obj
 0001:00041b35       @_EH4_TransferToHandler@8  10042b35 f   libvcruntime:_exsup4_.obj
 0001:00041b4e       @_EH4_GlobalUnwind2@8      10042b4e f   libvcruntime:_exsup4_.obj
 0001:00041b67       @_EH4_LocalUnwind@16       10042b67 f   libvcruntime:_exsup4_.obj
 0001:00041b7e       ___vcrt_freefls@4          10042b7e f   libvcruntime:per_thread_data.obj
 0001:00041b9a       ___vcrt_freeptd            10042b9a f   libvcruntime:per_thread_data.obj
 0001:00041bd0       ___vcrt_getptd_noexit      10042bd0 f   libvcruntime:per_thread_data.obj
 0001:00041c62       ___vcrt_initialize_ptd     10042c62 f   libvcruntime:per_thread_data.obj
 0001:00041c95       ___vcrt_uninitialize_ptd   10042c95 f   libvcruntime:per_thread_data.obj
 0001:00041cb0       ___vcrt_initialize_locks   10042cb0 f   libvcruntime:locks.obj
 0001:00041cec       ___vcrt_uninitialize_locks 10042cec f   libvcruntime:locks.obj
 0001:00041e3c       ___vcrt_FlsAlloc           10042e3c f   libvcruntime:winapi_downlevel.obj
 0001:00041e76       ___vcrt_FlsFree            10042e76 f   libvcruntime:winapi_downlevel.obj
 0001:00041eb0       ___vcrt_FlsGetValue        10042eb0 f   libvcruntime:winapi_downlevel.obj
 0001:00041eea       ___vcrt_FlsSetValue        10042eea f   libvcruntime:winapi_downlevel.obj
 0001:00041f27       ___vcrt_InitializeCriticalSectionEx 10042f27 f   libvcruntime:winapi_downlevel.obj
 0001:00041f6d       ___vcrt_initialize_winapi_thunks 10042f6d f   libvcruntime:winapi_downlevel.obj
 0001:00041fa7       ___vcrt_uninitialize_winapi_thunks 10042fa7 f   libvcruntime:winapi_downlevel.obj
 0001:00041fd9       ___vcrt_initialize_pure_virtual_call_handler 10042fd9 f   libvcruntime:purevirt_data.obj
 0001:00042000       __global_unwind2           10043000 f   libvcruntime:_exsup_.obj
 0001:00042065       __local_unwind2            10043065 f   libvcruntime:_exsup_.obj
 0001:000420e9       __abnormal_termination     100430e9 f   libvcruntime:_exsup_.obj
 0001:0004210c       __NLG_Notify1              1004310c f   libvcruntime:_exsup_.obj
 0001:00042115       __NLG_Notify               10043115 f   libvcruntime:_exsup_.obj
 0001:0004212c       __NLG_Dispatch             1004312c     libvcruntime:_exsup_.obj
 0001:0004212c       __NLG_Dispatch2            1004312c     libvcruntime:_exsup_.obj
 0001:00042134       __NLG_Call                 10043134 f   libvcruntime:_exsup_.obj
 0001:00042136       __NLG_Return2              10043136     libvcruntime:_exsup_.obj
 0001:00042137       ??0_LocaleUpdate@@QAE@QAU__crt_locale_pointers@@@Z 10043137 f i libucrt:stricmp.obj
 0001:000421ba       ___ascii_stricmp           100431ba f   libucrt:stricmp.obj
 0001:000421f5       __stricmp                  100431f5 f   libucrt:stricmp.obj
 0001:000421f5       __strcmpi                  100431f5 f   libucrt:stricmp.obj
 0001:0004223d       __stricmp_l                1004323d f   libucrt:stricmp.obj
 0001:000422d7       _calloc                    100432d7 f   libucrt:calloc.obj
 0001:000422e2       _free                      100432e2 f   libucrt:free.obj
 0001:0004244e       __chvalidchk_l             1004344e f i libucrt:tolower_toupper.obj
 0001:00042478       __ischartype_l             10043478 f i libucrt:tolower_toupper.obj
 0001:000424ab       __tolower_l                100434ab f   libucrt:tolower_toupper.obj
 0001:000424c5       _tolower                   100434c5 f   libucrt:tolower_toupper.obj
 0001:00042500       _strncmp                   10043500 f   libucrt:strncmp.obj
 0001:00042578       ??$?RV<lambda_db08b09ef7aa9d4f8620ce68402612bc>@@AAV<lambda_4f2c1eaeead2a5fc776db5b62ea0fb9b>@@V<lambda_3ae262bc35d4ba6a3825c4f6bcaaf95c>@@@?$__crt_seh_guarded_call@H@@QAEH$$QAV<lambda_db08b09ef7aa9d4f8620ce68402612bc>@@AAV<lambda_4f2c1eaeead2a5fc776db5b62ea0fb9b>@@$$QAV<lambda_3ae262bc35d4ba6a3825c4f6bcaaf95c>@@@Z 10043578 f i libucrt:output.obj
 0001:000425c9       ??$__acrt_lock_stream_and_call@V<lambda_4f2c1eaeead2a5fc776db5b62ea0fb9b>@@@@YAHQAU_iobuf@@$$QAV<lambda_4f2c1eaeead2a5fc776db5b62ea0fb9b>@@@Z 100435c9 f i libucrt:output.obj
 0001:0004276d       ??$count@D@formatting_buffer@__crt_stdio_output@@QBEIXZ 1004376d f i libucrt:output.obj
 0001:00042785       ??$ensure_buffer_is_big_enough@D@formatting_buffer@__crt_stdio_output@@QAE_NI@Z 10043785 f i libucrt:output.obj
 0001:0004280b       ??$is_wide_character_specifier@D@__crt_stdio_output@@YA_N_KDW4length_modifier@0@@Z 1004380b f i libucrt:output.obj
 0001:0004284b       ??$scratch_data@D@formatting_buffer@__crt_stdio_output@@QAEPADXZ 1004384b f i libucrt:output.obj
 0001:00042869       ??$type_case_integer_parse_into_buffer@I@?$output_processor@DV?$stream_output_adapter@D@__crt_stdio_output@@V?$standard_base@DV?$stream_output_adapter@D@__crt_stdio_output@@@2@@__crt_stdio_output@@AAEXII_N@Z 10043869 f i libucrt:output.obj
 0001:00042869       ??$type_case_integer_parse_into_buffer@I@?$output_processor@DV?$string_output_adapter@D@__crt_stdio_output@@V?$standard_base@DV?$string_output_adapter@D@__crt_stdio_output@@@2@@__crt_stdio_output@@AAEXII_N@Z 10043869 f i libucrt:output.obj
 0001:000428de       ??$type_case_integer_parse_into_buffer@_K@?$output_processor@DV?$string_output_adapter@D@__crt_stdio_output@@V?$standard_base@DV?$string_output_adapter@D@__crt_stdio_output@@@2@@__crt_stdio_output@@AAEX_KI_N@Z 100438de f i libucrt:output.obj
 0001:000428de       ??$type_case_integer_parse_into_buffer@_K@?$output_processor@DV?$stream_output_adapter@D@__crt_stdio_output@@V?$standard_base@DV?$stream_output_adapter@D@__crt_stdio_output@@@2@@__crt_stdio_output@@AAEX_KI_N@Z 100438de f i libucrt:output.obj
 0001:00042966       ??$write_multiple_characters@V?$stream_output_adapter@D@__crt_stdio_output@@D@__crt_stdio_output@@YAXABV?$stream_output_adapter@D@0@DHQAH@Z 10043966 f i libucrt:output.obj
 0001:00042992       ??$write_multiple_characters@V?$string_output_adapter@D@__crt_stdio_output@@D@__crt_stdio_output@@YAXABV?$string_output_adapter@D@0@DHQAH@Z 10043992 f i libucrt:output.obj
 0001:000429be       ??0?$common_data@D@__crt_stdio_output@@IAE@XZ 100439be f i libucrt:output.obj
 0001:00042a05       ??0?$output_adapter_data@DV?$string_output_adapter@D@__crt_stdio_output@@@__crt_stdio_output@@IAE@ABV?$string_output_adapter@D@1@_KQBDQAU__crt_locale_pointers@@QAD@Z 10043a05 f i libucrt:output.obj
 0001:00042a05       ??0?$output_adapter_data@DV?$stream_output_adapter@D@__crt_stdio_output@@@__crt_stdio_output@@IAE@ABV?$stream_output_adapter@D@1@_KQBDQAU__crt_locale_pointers@@QAD@Z 10043a05 f i libucrt:output.obj
 0001:00042a41       ??0?$output_processor@DV?$stream_output_adapter@D@__crt_stdio_output@@V?$standard_base@DV?$stream_output_adapter@D@__crt_stdio_output@@@2@@__crt_stdio_output@@QAE@ABV?$stream_output_adapter@D@1@_KQBDQAU__crt_locale_pointers@@QAD@Z 10043a41 f i libucrt:output.obj
 0001:00042a41       ??0?$output_processor@DV?$string_output_adapter@D@__crt_stdio_output@@V?$standard_base@DV?$string_output_adapter@D@__crt_stdio_output@@@2@@__crt_stdio_output@@QAE@ABV?$string_output_adapter@D@1@_KQBDQAU__crt_locale_pointers@@QAD@Z 10043a41 f i libucrt:output.obj
 0001:00042a76       ??1formatting_buffer@__crt_stdio_output@@QAE@XZ 10043a76 f i libucrt:output.obj
 0001:00042a90       ??4?$__crt_unique_heap_ptr@DU__crt_internal_free_policy@@@@QAEAAV0@$$QAV0@@Z 10043a90 f i libucrt:output.obj
 0001:00042b71       ?crop_zeroes@__crt_stdio_output@@YAXPADQAU__crt_locale_pointers@@@Z 10043b71 f i libucrt:output.obj
 0001:00042bc8       ?find_next_state@?$output_processor@DV?$string_output_adapter@D@__crt_stdio_output@@V?$standard_base@DV?$string_output_adapter@D@__crt_stdio_output@@@2@@__crt_stdio_output@@ABE?AW4state@2@DW432@@Z 10043bc8 f i libucrt:output.obj
 0001:00042bc8       ?find_next_state@?$output_processor@DV?$stream_output_adapter@D@__crt_stdio_output@@V?$standard_base@DV?$stream_output_adapter@D@__crt_stdio_output@@@2@@__crt_stdio_output@@ABE?AW4state@2@DW432@@Z 10043bc8 f i libucrt:output.obj
 0001:00042bfa       ?force_decimal_point@__crt_stdio_output@@YAXPADQAU__crt_locale_pointers@@@Z 10043bfa f i libucrt:output.obj
 0001:00042c56       ?parse_int_from_format_string@?$output_processor@DV?$string_output_adapter@D@__crt_stdio_output@@V?$standard_base@DV?$string_output_adapter@D@__crt_stdio_output@@@2@@__crt_stdio_output@@AAE_NQAH@Z 10043c56 f i libucrt:output.obj
 0001:00042c56       ?parse_int_from_format_string@?$output_processor@DV?$stream_output_adapter@D@__crt_stdio_output@@V?$standard_base@DV?$stream_output_adapter@D@__crt_stdio_output@@@2@@__crt_stdio_output@@AAE_NQAH@Z 10043c56 f i libucrt:output.obj
 0001:00042cb2       ?process@?$output_processor@DV?$stream_output_adapter@D@__crt_stdio_output@@V?$standard_base@DV?$stream_output_adapter@D@__crt_stdio_output@@@2@@__crt_stdio_output@@QAEHXZ 10043cb2 f i libucrt:output.obj
 0001:00042dce       ?process@?$output_processor@DV?$string_output_adapter@D@__crt_stdio_output@@V?$standard_base@DV?$string_output_adapter@D@__crt_stdio_output@@@2@@__crt_stdio_output@@QAEHXZ 10043dce f i libucrt:output.obj
 0001:00042eea       ?state_case_flag@?$output_processor@DV?$string_output_adapter@D@__crt_stdio_output@@V?$standard_base@DV?$string_output_adapter@D@__crt_stdio_output@@@2@@__crt_stdio_output@@AAE_NXZ 10043eea f i libucrt:output.obj
 0001:00042eea       ?state_case_flag@?$output_processor@DV?$stream_output_adapter@D@__crt_stdio_output@@V?$standard_base@DV?$stream_output_adapter@D@__crt_stdio_output@@@2@@__crt_stdio_output@@AAE_NXZ 10043eea f i libucrt:output.obj
 0001:00042f27       ?state_case_normal@?$output_processor@DV?$stream_output_adapter@D@__crt_stdio_output@@V?$standard_base@DV?$stream_output_adapter@D@__crt_stdio_output@@@2@@__crt_stdio_output@@AAE_NXZ 10043f27 f i libucrt:output.obj
 0001:00042f46       ?state_case_normal@?$output_processor@DV?$string_output_adapter@D@__crt_stdio_output@@V?$standard_base@DV?$string_output_adapter@D@__crt_stdio_output@@@2@@__crt_stdio_output@@AAE_NXZ 10043f46 f i libucrt:output.obj
 0001:00042f65       ?state_case_normal_common@?$output_processor@DV?$stream_output_adapter@D@__crt_stdio_output@@V?$standard_base@DV?$stream_output_adapter@D@__crt_stdio_output@@@2@@__crt_stdio_output@@AAE_NXZ 10043f65 f i libucrt:output.obj
 0001:00042f8f       ?state_case_normal_common@?$output_processor@DV?$string_output_adapter@D@__crt_stdio_output@@V?$standard_base@DV?$string_output_adapter@D@__crt_stdio_output@@@2@@__crt_stdio_output@@AAE_NXZ 10043f8f f i libucrt:output.obj
 0001:00042fb9       ?state_case_normal_tchar@?$output_processor@DV?$stream_output_adapter@D@__crt_stdio_output@@V?$standard_base@DV?$stream_output_adapter@D@__crt_stdio_output@@@2@@__crt_stdio_output@@AAE_ND@Z 10043fb9 f i libucrt:output.obj
 0001:0004301a       ?state_case_normal_tchar@?$output_processor@DV?$string_output_adapter@D@__crt_stdio_output@@V?$standard_base@DV?$string_output_adapter@D@__crt_stdio_output@@@2@@__crt_stdio_output@@AAE_ND@Z 1004401a f i libucrt:output.obj
 0001:0004307b       ?state_case_precision@?$output_processor@DV?$string_output_adapter@D@__crt_stdio_output@@V?$standard_base@DV?$string_output_adapter@D@__crt_stdio_output@@@2@@__crt_stdio_output@@AAE_NXZ 1004407b f i libucrt:output.obj
 0001:0004307b       ?state_case_precision@?$output_processor@DV?$stream_output_adapter@D@__crt_stdio_output@@V?$standard_base@DV?$stream_output_adapter@D@__crt_stdio_output@@@2@@__crt_stdio_output@@AAE_NXZ 1004407b f i libucrt:output.obj
 0001:000430a3       ?state_case_size@?$output_processor@DV?$stream_output_adapter@D@__crt_stdio_output@@V?$standard_base@DV?$stream_output_adapter@D@__crt_stdio_output@@@2@@__crt_stdio_output@@AAE_NXZ 100440a3 f i libucrt:output.obj
 0001:0004320c       ?state_case_size@?$output_processor@DV?$string_output_adapter@D@__crt_stdio_output@@V?$standard_base@DV?$string_output_adapter@D@__crt_stdio_output@@@2@@__crt_stdio_output@@AAE_NXZ 1004420c f i libucrt:output.obj
 0001:00043375       ?state_case_type@?$output_processor@DV?$stream_output_adapter@D@__crt_stdio_output@@V?$standard_base@DV?$stream_output_adapter@D@__crt_stdio_output@@@2@@__crt_stdio_output@@AAE_NXZ 10044375 f i libucrt:output.obj
 0001:000435a4       ?state_case_type@?$output_processor@DV?$string_output_adapter@D@__crt_stdio_output@@V?$standard_base@DV?$string_output_adapter@D@__crt_stdio_output@@@2@@__crt_stdio_output@@AAE_NXZ 100445a4 f i libucrt:output.obj
 0001:000437d3       ?state_case_width@?$output_processor@DV?$string_output_adapter@D@__crt_stdio_output@@V?$standard_base@DV?$string_output_adapter@D@__crt_stdio_output@@@2@@__crt_stdio_output@@AAE_NXZ 100447d3 f i libucrt:output.obj
 0001:000437d3       ?state_case_width@?$output_processor@DV?$stream_output_adapter@D@__crt_stdio_output@@V?$standard_base@DV?$stream_output_adapter@D@__crt_stdio_output@@@2@@__crt_stdio_output@@AAE_NXZ 100447d3 f i libucrt:output.obj
 0001:000437fe       ?to_integer_size@__crt_stdio_output@@YAIW4length_modifier@1@@Z 100447fe f i libucrt:output.obj
 0001:0004385a       ?type_case_Z@?$output_processor@DV?$stream_output_adapter@D@__crt_stdio_output@@V?$standard_base@DV?$stream_output_adapter@D@__crt_stdio_output@@@2@@__crt_stdio_output@@AAE_NXZ 1004485a f i libucrt:output.obj
 0001:0004385a       ?type_case_Z@?$output_processor@DV?$string_output_adapter@D@__crt_stdio_output@@V?$standard_base@DV?$string_output_adapter@D@__crt_stdio_output@@@2@@__crt_stdio_output@@AAE_NXZ 1004485a f i libucrt:output.obj
 0001:000438bd       ?type_case_a@?$output_processor@DV?$stream_output_adapter@D@__crt_stdio_output@@V?$standard_base@DV?$stream_output_adapter@D@__crt_stdio_output@@@2@@__crt_stdio_output@@AAE_NXZ 100448bd f i libucrt:output.obj
 0001:000438bd       ?type_case_a@?$output_processor@DV?$string_output_adapter@D@__crt_stdio_output@@V?$standard_base@DV?$string_output_adapter@D@__crt_stdio_output@@@2@@__crt_stdio_output@@AAE_NXZ 100448bd f i libucrt:output.obj
 0001:00043a17       ?type_case_c_tchar@?$output_processor@DV?$string_output_adapter@D@__crt_stdio_output@@V?$standard_base@DV?$string_output_adapter@D@__crt_stdio_output@@@2@@__crt_stdio_output@@AAE_ND@Z 10044a17 f i libucrt:output.obj
 0001:00043a17       ?type_case_c_tchar@?$output_processor@DV?$stream_output_adapter@D@__crt_stdio_output@@V?$standard_base@DV?$stream_output_adapter@D@__crt_stdio_output@@@2@@__crt_stdio_output@@AAE_ND@Z 10044a17 f i libucrt:output.obj
 0001:00043aa7       ?type_case_integer@?$output_processor@DV?$stream_output_adapter@D@__crt_stdio_output@@V?$standard_base@DV?$stream_output_adapter@D@__crt_stdio_output@@@2@@__crt_stdio_output@@AAE_NI_N@Z 10044aa7 f i libucrt:output.obj
 0001:00043aa7       ?type_case_integer@?$output_processor@DV?$string_output_adapter@D@__crt_stdio_output@@V?$standard_base@DV?$string_output_adapter@D@__crt_stdio_output@@@2@@__crt_stdio_output@@AAE_NI_N@Z 10044aa7 f i libucrt:output.obj
 0001:00043bf1       ?type_case_n@?$output_processor@DV?$string_output_adapter@D@__crt_stdio_output@@V?$standard_base@DV?$string_output_adapter@D@__crt_stdio_output@@@2@@__crt_stdio_output@@AAE_NXZ 10044bf1 f i libucrt:output.obj
 0001:00043bf1       ?type_case_n@?$output_processor@DV?$stream_output_adapter@D@__crt_stdio_output@@V?$standard_base@DV?$stream_output_adapter@D@__crt_stdio_output@@@2@@__crt_stdio_output@@AAE_NXZ 10044bf1 f i libucrt:output.obj
 0001:00043c65       ?type_case_o@?$output_processor@DV?$string_output_adapter@D@__crt_stdio_output@@V?$standard_base@DV?$string_output_adapter@D@__crt_stdio_output@@@2@@__crt_stdio_output@@AAE_NXZ 10044c65 f i libucrt:output.obj
 0001:00043c65       ?type_case_o@?$output_processor@DV?$stream_output_adapter@D@__crt_stdio_output@@V?$standard_base@DV?$stream_output_adapter@D@__crt_stdio_output@@@2@@__crt_stdio_output@@AAE_NXZ 10044c65 f i libucrt:output.obj
 0001:00043c84       ?type_case_p@?$output_processor@DV?$string_output_adapter@D@__crt_stdio_output@@V?$standard_base@DV?$string_output_adapter@D@__crt_stdio_output@@@2@@__crt_stdio_output@@AAE_NXZ 10044c84 f i libucrt:output.obj
 0001:00043c84       ?type_case_p@?$output_processor@DV?$stream_output_adapter@D@__crt_stdio_output@@V?$standard_base@DV?$stream_output_adapter@D@__crt_stdio_output@@@2@@__crt_stdio_output@@AAE_NXZ 10044c84 f i libucrt:output.obj
 0001:00043c9c       ?type_case_s@?$output_processor@DV?$stream_output_adapter@D@__crt_stdio_output@@V?$standard_base@DV?$stream_output_adapter@D@__crt_stdio_output@@@2@@__crt_stdio_output@@AAE_NXZ 10044c9c f i libucrt:output.obj
 0001:00043c9c       ?type_case_s@?$output_processor@DV?$string_output_adapter@D@__crt_stdio_output@@V?$standard_base@DV?$string_output_adapter@D@__crt_stdio_output@@@2@@__crt_stdio_output@@AAE_NXZ 10044c9c f i libucrt:output.obj
 0001:00043d0f       ?validate@?$stream_output_adapter@D@__crt_stdio_output@@QBE_NXZ 10044d0f f i libucrt:output.obj
 0001:00043d30       ?validate@?$string_output_adapter@D@__crt_stdio_output@@QBE_NXZ 10044d30 f i libucrt:output.obj
 0001:00043d30       ?validate@?$c_string_character_source@D@__crt_strtox@@QBE_NXZ 10044d30 f i libucrt:strtox.obj
 0001:00043d4b       ?validate_stream_is_ansi_if_required@?$__acrt_stdio_char_traits@D@@SA_NQAU_iobuf@@@Z 10044d4b f i libucrt:output.obj
 0001:00043dcd       ?write_character@?$stream_output_adapter@D@__crt_stdio_output@@QBEXDQAH@Z 10044dcd f i libucrt:output.obj
 0001:00043e0a       ?write_character@?$string_output_adapter@D@__crt_stdio_output@@QBE_NDQAH@Z 10044e0a f i libucrt:output.obj
 0001:00043e4c       ?write_stored_string_tchar@?$output_processor@DV?$stream_output_adapter@D@__crt_stdio_output@@V?$standard_base@DV?$stream_output_adapter@D@__crt_stdio_output@@@2@@__crt_stdio_output@@AAE_ND@Z 10044e4c f i libucrt:output.obj
 0001:00043ef3       ?write_stored_string_tchar@?$output_processor@DV?$string_output_adapter@D@__crt_stdio_output@@V?$standard_base@DV?$string_output_adapter@D@__crt_stdio_output@@@2@@__crt_stdio_output@@AAE_ND@Z 10044ef3 f i libucrt:output.obj
 0001:00043f9a       ?write_string@?$stream_output_adapter@D@__crt_stdio_output@@QBEXQBDHQAH1@Z 10044f9a f i libucrt:output.obj
 0001:00044024       ?write_string@?$string_output_adapter@D@__crt_stdio_output@@QBEXQBDHQAH1@Z 10045024 f i libucrt:output.obj
 0001:000440b7       ___stdio_common_vfprintf   100450b7 f   libucrt:output.obj
 0001:0004412e       ___stdio_common_vsprintf   1004512e f   libucrt:output.obj
 0001:00044152       ??$is_overflow_condition@K@__crt_strtox@@YA_NIK@Z 10045152 f i libucrt:strtox.obj
 0001:00044185       ??$is_overflow_condition@_K@__crt_strtox@@YA_NI_K@Z 10045185 f i libucrt:strtox.obj
 0001:000441c8       ??$make_c_string_character_source@D$$T@__crt_strtox@@YA?AV?$c_string_character_source@D@0@QBD$$T@Z 100451c8 f i libucrt:atox.obj
 0001:000441c8       ??$make_c_string_character_source@DPAPAD@__crt_strtox@@YA?AV?$c_string_character_source@D@0@QBDQAPAD@Z 100451c8 f i libucrt:strtox.obj
 0001:000441e3       ??$parse_integer@KV?$c_string_character_source@D@__crt_strtox@@@__crt_strtox@@YAKQAU__crt_locale_pointers@@V?$c_string_character_source@D@0@H_N@Z 100451e3 f i libucrt:strtox.obj
 0001:0004440b       ??$parse_integer@_KV?$c_string_character_source@D@__crt_strtox@@@__crt_strtox@@YA_KQAU__crt_locale_pointers@@V?$c_string_character_source@D@0@H_N@Z 1004540b f i libucrt:strtox.obj
 0001:000446b1       ?unget@?$c_string_character_source@D@__crt_strtox@@QAEXD@Z 100456b1 f i libucrt:strtox.obj
 0001:000446d9       _strtol                    100456d9 f   libucrt:strtox.obj
 0001:00044705       _strtoull                  10045705 f   libucrt:strtox.obj
 0001:00044731       _malloc                    10045731 f   libucrt:malloc.obj
 0001:0004473c       ___acrt_initialize_stdio   1004573c f   libucrt:_file.obj
 0001:00044804       ___acrt_iob_func           10045804 f   libucrt:_file.obj
 0001:00044814       ___acrt_uninitialize_stdio 10045814 f   libucrt:_file.obj
 0001:00044860       __lock_file                10045860 f   libucrt:_file.obj
 0001:00044874       __unlock_file              10045874 f   libucrt:_file.obj
 0001:00044888       ___acrt_stdio_flush_nolock 10045888 f   libucrt:fflush.obj
 0001:000448ee       __fflush_nolock            100458ee f   libucrt:fflush.obj
 0001:00044935       __flushall                 10045935 f   libucrt:fflush.obj
 0001:00044a16       _fflush                    10045a16 f   libucrt:fflush.obj
 0001:00044a70       _strncpy                   10045a70 f   libucrt:strncpy.obj
 0001:00044daf       ___acrt_initialize_thread_local_exit_callback 10045daf f   libucrt:exit.obj
 0001:00044dbe       __cexit                    10045dbe f   libucrt:exit.obj
 0001:00044dcd       __exit                     10045dcd f   libucrt:exit.obj
 0001:00044de3       __is_c_termination_complete 10045de3 f   libucrt:exit.obj
 0001:00044de9       _exit                      10045de9 f   libucrt:exit.obj
 0001:00044ee0       _qsort                     10045ee0 f   libucrt:qsort.obj
 0001:0004527a       __strnicmp                 1004627a f   libucrt:strnicmp.obj
 0001:000452e6       __strnicmp_l               100462e6 f   libucrt:strnicmp.obj
 0001:0004539d       ??$assemble_floating_point_ind@N@__crt_strtox@@YAXAAN@Z 1004639d f i libucrt:atof.obj
 0001:000453cc       ??$assemble_floating_point_infinity@N@__crt_strtox@@YAX_NAAN@Z 100463cc f i libucrt:atof.obj
 0001:0004540b       ??$assemble_floating_point_qnan@N@__crt_strtox@@YAX_NAAN@Z 1004640b f i libucrt:atof.obj
 0001:0004544a       ??$assemble_floating_point_snan@N@__crt_strtox@@YAX_NAAN@Z 1004644a f i libucrt:atof.obj
 0001:0004548e       ??$assemble_floating_point_value_t@M@__crt_strtox@@YA?AW4SLD_STATUS@@_NH_KAAM@Z 1004648e f i libucrt:atof.obj
 0001:000454be       ??$assemble_floating_point_value_t@N@__crt_strtox@@YA?AW4SLD_STATUS@@_NH_KAAN@Z 100464be f i libucrt:atof.obj
 0001:0004551d       ??$assemble_floating_point_zero@N@__crt_strtox@@YAX_NAAN@Z 1004651d f i libucrt:atof.obj
 0001:000455c7       ??$convert_decimal_string_to_floating_type@M@__crt_strtox@@YA?AW4SLD_STATUS@@ABUfloating_point_string@0@AAM@Z 100465c7 f i libucrt:atof.obj
 0001:000455ea       ??$convert_decimal_string_to_floating_type@N@__crt_strtox@@YA?AW4SLD_STATUS@@ABUfloating_point_string@0@AAN@Z 100465ea f i libucrt:atof.obj
 0001:0004560d       ??$convert_hexadecimal_string_to_floating_type@M@__crt_strtox@@YA?AW4SLD_STATUS@@ABUfloating_point_string@0@AAM@Z 1004660d f i libucrt:atof.obj
 0001:00045630       ??$convert_hexadecimal_string_to_floating_type@N@__crt_strtox@@YA?AW4SLD_STATUS@@ABUfloating_point_string@0@AAN@Z 10046630 f i libucrt:atof.obj
 0001:00045653       ??$parse_floating_point@V?$c_string_character_source@D@__crt_strtox@@N@__crt_strtox@@YA?AW4SLD_STATUS@@QAU__crt_locale_pointers@@V?$c_string_character_source@D@0@QAN@Z 10046653 f i libucrt:atof.obj
 0001:000456c9       ??$parse_floating_point_from_source@V?$c_string_character_source@D@__crt_strtox@@@__crt_strtox@@YA?AW4floating_point_parse_result@0@QAU__crt_locale_pointers@@AAV?$c_string_character_source@D@0@AAUfloating_point_string@0@@Z 100466c9 f i libucrt:atof.obj
 0001:00045abb       ??$parse_floating_point_possible_infinity@DV?$c_string_character_source@D@__crt_strtox@@PBD@__crt_strtox@@YA?AW4floating_point_parse_result@0@AADAAV?$c_string_character_source@D@0@PBD@Z 10046abb f i libucrt:atof.obj
 0001:00045b68       ??$parse_floating_point_possible_nan@DV?$c_string_character_source@D@__crt_strtox@@PBD@__crt_strtox@@YA?AW4floating_point_parse_result@0@AADAAV?$c_string_character_source@D@0@PBD@Z 10046b68 f i libucrt:atof.obj
 0001:00045c83       ??$parse_floating_point_possible_nan_is_ind@DV?$c_string_character_source@D@__crt_strtox@@@__crt_strtox@@YA_NAADAAV?$c_string_character_source@D@0@@Z 10046c83 f i libucrt:atof.obj
 0001:00045cbf       ??$parse_floating_point_possible_nan_is_snan@DV?$c_string_character_source@D@__crt_strtox@@@__crt_strtox@@YA_NAADAAV?$c_string_character_source@D@0@@Z 10046cbf f i libucrt:atof.obj
 0001:00045cfb       ??$parse_floating_point_write_result@M@__crt_strtox@@YA?AW4SLD_STATUS@@W4floating_point_parse_result@0@ABUfloating_point_string@0@QAM@Z 10046cfb f i libucrt:atof.obj
 0001:00045e0b       ??$parse_floating_point_write_result@N@__crt_strtox@@YA?AW4SLD_STATUS@@W4floating_point_parse_result@0@ABUfloating_point_string@0@QAN@Z 10046e0b f i libucrt:atof.obj
 0001:00045f35       ?as_double@floating_point_value@__crt_strtox@@QBEAANXZ 10046f35 f i libucrt:atof.obj
 0001:00045f5a       ?as_float@floating_point_value@__crt_strtox@@QBEAAMXZ 10046f5a f i libucrt:atof.obj
 0001:00045f7f       ?assemble_floating_point_infinity@__crt_strtox@@YAX_NABVfloating_point_value@1@@Z 10046f7f f i libucrt:atof.obj
 0001:00045fb9       ?assemble_floating_point_value@__crt_strtox@@YA?AW4SLD_STATUS@@_KH_N1ABVfloating_point_value@1@@Z 10046fb9 f i libucrt:atof.obj
 0001:00046305       ?assemble_floating_point_value_from_big_integer@__crt_strtox@@YA?AW4SLD_STATUS@@ABUbig_integer@1@I_N1ABVfloating_point_value@1@@Z 10047305 f i libucrt:atof.obj
 0001:00046493       ?assemble_floating_point_zero@__crt_strtox@@YAX_NABVfloating_point_value@1@@Z 10047493 f i libucrt:atof.obj
 0001:000464c7       ?convert_decimal_string_to_floating_type_common@__crt_strtox@@YA?AW4SLD_STATUS@@ABUfloating_point_string@1@ABVfloating_point_value@1@@Z 100474c7 f i libucrt:atof.obj
 0001:0004828a       ?convert_hexadecimal_string_to_floating_type_common@__crt_strtox@@YA?AW4SLD_STATUS@@ABUfloating_point_string@1@ABVfloating_point_value@1@@Z 1004928a f i libucrt:atof.obj
 0001:00048336       ?denormal_mantissa_mask@floating_point_value@__crt_strtox@@QBE_KXZ 10049336 f i libucrt:atof.obj
 0001:00048350       ?divide@__crt_strtox@@YA_KAAUbig_integer@1@ABU21@@Z 10049350 f i libucrt:atof.obj
 0001:000487fe       ?normal_mantissa_mask@floating_point_value@__crt_strtox@@QBE_KXZ 100497fe f i libucrt:atof.obj
 0001:00048815       _atof                      10049815 f   libucrt:atof.obj
 0001:000488a9       ___acrt_errno_from_os_error 100498a9 f   libucrt:errno.obj
 0001:000488ec       ___acrt_errno_map_os_error 100498ec f   libucrt:errno.obj
 0001:0004890f       ___doserrno                1004990f f   libucrt:errno.obj
 0001:00048922       __errno                    10049922 f   libucrt:errno.obj
 0001:00048935       _realloc                   10049935 f   libucrt:realloc.obj
 0001:000489ff       ??$make_input_adapter_character_source@V?$string_input_adapter@D@__crt_stdio_input@@@__crt_strtox@@YA?AV?$input_adapter_character_source@V?$string_input_adapter@D@__crt_stdio_input@@@0@QAV?$string_input_adapter@D@__crt_stdio_input@@_KQA_N@Z 100499ff f i libucrt:input.obj
 0001:00048a1d       ??$parse_floating_point@V?$input_adapter_character_source@V?$string_input_adapter@D@__crt_stdio_input@@@__crt_strtox@@M@__crt_strtox@@YA?AW4SLD_STATUS@@QAU__crt_locale_pointers@@V?$input_adapter_character_source@V?$string_input_adapter@D@__crt_stdio_input@@@0@QAM@Z 10049a1d f i libucrt:input.obj
 0001:00048a98       ??$parse_floating_point@V?$input_adapter_character_source@V?$string_input_adapter@D@__crt_stdio_input@@@__crt_strtox@@N@__crt_strtox@@YA?AW4SLD_STATUS@@QAU__crt_locale_pointers@@V?$input_adapter_character_source@V?$string_input_adapter@D@__crt_stdio_input@@@0@QAN@Z 10049a98 f i libucrt:input.obj
 0001:00048b13       ??$parse_floating_point_from_source@V?$input_adapter_character_source@V?$string_input_adapter@D@__crt_stdio_input@@@__crt_strtox@@@__crt_strtox@@YA?AW4floating_point_parse_result@0@QAU__crt_locale_pointers@@AAV?$input_adapter_character_source@V?$string_input_adapter@D@__crt_stdio_input@@@0@AAUfloating_point_string@0@@Z 10049b13 f i libucrt:input.obj
 0001:00048f7a       ??$parse_floating_point_possible_infinity@DV?$input_adapter_character_source@V?$string_input_adapter@D@__crt_stdio_input@@@__crt_strtox@@_K@__crt_strtox@@YA?AW4floating_point_parse_result@0@AADAAV?$input_adapter_character_source@V?$string_input_adapter@D@__crt_stdio_input@@@0@_K@Z 10049f7a f i libucrt:input.obj
 0001:0004903b       ??$parse_floating_point_possible_nan@DV?$input_adapter_character_source@V?$string_input_adapter@D@__crt_stdio_input@@@__crt_strtox@@_K@__crt_strtox@@YA?AW4floating_point_parse_result@0@AADAAV?$input_adapter_character_source@V?$string_input_adapter@D@__crt_stdio_input@@@0@_K@Z 1004a03b f i libucrt:input.obj
 0001:0004914d       ??$parse_floating_point_possible_nan_is_ind@DV?$input_adapter_character_source@V?$string_input_adapter@D@__crt_stdio_input@@@__crt_strtox@@@__crt_strtox@@YA_NAADAAV?$input_adapter_character_source@V?$string_input_adapter@D@__crt_stdio_input@@@0@@Z 1004a14d f i libucrt:input.obj
 0001:00049187       ??$parse_floating_point_possible_nan_is_snan@DV?$input_adapter_character_source@V?$string_input_adapter@D@__crt_stdio_input@@@__crt_strtox@@@__crt_strtox@@YA_NAADAAV?$input_adapter_character_source@V?$string_input_adapter@D@__crt_stdio_input@@@0@@Z 1004a187 f i libucrt:input.obj
 0001:000491c1       ??$parse_integer@_KV?$input_adapter_character_source@V?$string_input_adapter@D@__crt_stdio_input@@@__crt_strtox@@@__crt_strtox@@YA_KQAU__crt_locale_pointers@@V?$input_adapter_character_source@V?$string_input_adapter@D@__crt_stdio_input@@@0@H_N@Z 1004a1c1 f i libucrt:input.obj
 0001:00049472       ??$process_floating_point_specifier_t@M@?$input_processor@DV?$string_input_adapter@D@__crt_stdio_input@@@__crt_stdio_input@@AAE_NXZ 1004a472 f i libucrt:input.obj
 0001:000494da       ??$process_floating_point_specifier_t@N@?$input_processor@DV?$string_input_adapter@D@__crt_stdio_input@@@__crt_stdio_input@@AAE_NXZ 1004a4da f i libucrt:input.obj
 0001:00049542       ??$process_string_specifier_tchar@D@?$input_processor@DV?$string_input_adapter@D@__crt_stdio_input@@@__crt_stdio_input@@AAE_NW4conversion_mode@1@D@Z 1004a542 f i libucrt:input.obj
 0001:000496a4       ??$process_string_specifier_tchar@_W@?$input_processor@DV?$string_input_adapter@D@__crt_stdio_input@@@__crt_stdio_input@@AAE_NW4conversion_mode@1@_W@Z 1004a6a4 f i libucrt:input.obj
 0001:00049810       ??$skip_whitespace@Vstring_input_adapter@__crt_stdio_input@@D@__crt_stdio_input@@YAHAAV?$string_input_adapter@D@0@QAU__crt_locale_pointers@@@Z 1004a810 f i libucrt:input.obj
 0001:0004983f       ??$write_floating_point@M@?$input_processor@DV?$string_input_adapter@D@__crt_stdio_input@@@__crt_stdio_input@@AAE_NABM@Z 1004a83f f i libucrt:input.obj
 0001:00049876       ??$write_floating_point@N@?$input_processor@DV?$string_input_adapter@D@__crt_stdio_input@@@__crt_stdio_input@@AAE_NABN@Z 1004a876 f i libucrt:input.obj
 0001:000498b3       ??0?$format_string_parser@D@__crt_stdio_input@@QAE@_KQBE@Z 1004a8b3 f i libucrt:input.obj
 0001:000498fd       ??0?$input_adapter_character_source@V?$string_input_adapter@D@__crt_stdio_input@@@__crt_strtox@@QAE@QAV?$string_input_adapter@D@__crt_stdio_input@@_KQA_N@Z 1004a8fd f i libucrt:input.obj
 0001:0004992e       ??0?$input_processor@DV?$string_input_adapter@D@__crt_stdio_input@@@__crt_stdio_input@@QAE@ABV?$string_input_adapter@D@1@_KQBDQAU__crt_locale_pointers@@QAD@Z 1004a92e f i libucrt:input.obj
 0001:000499a0       ?advance@?$format_string_parser@D@__crt_stdio_input@@QAE_NXZ 1004a9a0 f i libucrt:input.obj
 0001:00049ac0       ?get@?$input_adapter_character_source@V?$string_input_adapter@D@__crt_stdio_input@@@__crt_strtox@@QAEDXZ 1004aac0 f i libucrt:input.obj
 0001:00049afa       ?get@?$string_input_adapter@D@__crt_stdio_input@@QAEHXZ 1004aafa f i libucrt:input.obj
 0001:00049b10       ?invert@?$scanset_buffer@E@__crt_stdio_input@@QAEXXZ 1004ab10 f i libucrt:input.obj
 0001:00049b2e       ?is_character_allowed_in_string@?$input_processor@DV?$string_input_adapter@D@__crt_stdio_input@@@__crt_stdio_input@@ABE_NW4conversion_mode@2@H@Z 1004ab2e f i libucrt:input.obj
 0001:00049b74       ?length@?$format_string_parser@D@__crt_stdio_input@@QBEIXZ 1004ab74 f i libucrt:input.obj
 0001:00049bb5       ?process@?$input_processor@DV?$string_input_adapter@D@__crt_stdio_input@@@__crt_stdio_input@@QAEHXZ 1004abb5 f i libucrt:input.obj
 0001:00049c3a       ?process_character_count_specifier@?$input_processor@DV?$string_input_adapter@D@__crt_stdio_input@@@__crt_stdio_input@@AAE_NXZ 1004ac3a f i libucrt:input.obj
 0001:00049c54       ?process_conversion_specifier@?$input_processor@DV?$string_input_adapter@D@__crt_stdio_input@@@__crt_stdio_input@@AAE_NXZ 1004ac54 f i libucrt:input.obj
 0001:00049cc8       ?process_floating_point_specifier@?$input_processor@DV?$string_input_adapter@D@__crt_stdio_input@@@__crt_stdio_input@@AAE_NXZ 1004acc8 f i libucrt:input.obj
 0001:00049cf8       ?process_integer_specifier@?$input_processor@DV?$string_input_adapter@D@__crt_stdio_input@@@__crt_stdio_input@@AAE_NI_N@Z 1004acf8 f i libucrt:input.obj
 0001:00049d5e       ?process_literal_character@?$input_processor@DV?$string_input_adapter@D@__crt_stdio_input@@@__crt_stdio_input@@AAE_NXZ 1004ad5e f i libucrt:input.obj
 0001:00049d94       ?process_literal_character_tchar@?$input_processor@DV?$string_input_adapter@D@__crt_stdio_input@@@__crt_stdio_input@@AAE_ND@Z 1004ad94 f i libucrt:input.obj
 0001:00049dea       ?process_state@?$input_processor@DV?$string_input_adapter@D@__crt_stdio_input@@@__crt_stdio_input@@AAE_NXZ 1004adea f i libucrt:input.obj
 0001:00049e20       ?process_string_specifier@?$input_processor@DV?$string_input_adapter@D@__crt_stdio_input@@@__crt_stdio_input@@AAE_NW4conversion_mode@2@@Z 1004ae20 f i libucrt:input.obj
 0001:00049e68       ?process_whitespace@?$input_processor@DV?$string_input_adapter@D@__crt_stdio_input@@@__crt_stdio_input@@AAE_NXZ 1004ae68 f i libucrt:input.obj
 0001:00049e85       ?restore_state@?$input_adapter_character_source@V?$string_input_adapter@D@__crt_stdio_input@@@__crt_strtox@@QAE_N_K@Z 1004ae85 f i libucrt:input.obj
 0001:00049eaa       ?scan_conversion_specifier@?$format_string_parser@D@__crt_stdio_input@@AAE_NXZ 1004aeaa f i libucrt:input.obj
 0001:0004a015       ?scan_optional_field_width@?$format_string_parser@D@__crt_stdio_input@@AAE_NXZ 1004b015 f i libucrt:input.obj
 0001:0004a0b4       ?scan_optional_length_modifier@?$format_string_parser@D@__crt_stdio_input@@AAEXXZ 1004b0b4 f i libucrt:input.obj
 0001:0004a1d4       ?scan_optional_literal_character_trail_bytes_tchar@?$format_string_parser@D@__crt_stdio_input@@AAE_ND@Z 1004b1d4 f i libucrt:input.obj
 0001:0004a229       ?scan_optional_wide_modifier@?$format_string_parser@D@__crt_stdio_input@@AAEXXZ 1004b229 f i libucrt:input.obj
 0001:0004a247       ?scan_scanset_range@?$format_string_parser@D@__crt_stdio_input@@AAE_NXZ 1004b247 f i libucrt:input.obj
 0001:0004a34e       ?set@?$scanset_buffer@E@__crt_stdio_input@@QAEXE@Z 1004b34e f i libucrt:input.obj
 0001:0004a379       ?set_wide_for_c_s_or_scanset@?$format_string_parser@D@__crt_stdio_input@@AAEXXZ 1004b379 f i libucrt:input.obj
 0001:0004a399       ?test@?$scanset_buffer@E@__crt_stdio_input@@QBE_NE@Z 1004b399 f i libucrt:input.obj
 0001:0004a3ca       ?to_floating_point_length@__crt_stdio_input@@YAIW4length_modifier@1@@Z 1004b3ca f i libucrt:input.obj
 0001:0004a3ed       ?to_integer_length@__crt_stdio_input@@YAIW4length_modifier@1@@Z 1004b3ed f i libucrt:input.obj
 0001:0004a445       ?unget@?$input_adapter_character_source@V?$string_input_adapter@D@__crt_stdio_input@@@__crt_strtox@@QAEXD@Z 1004b445 f i libucrt:input.obj
 0001:0004a486       ?unget@?$string_input_adapter@D@__crt_stdio_input@@QAEXH@Z 1004b486 f i libucrt:input.obj
 0001:0004a4a5       ?validate@?$format_string_parser@D@__crt_stdio_input@@QBE_NXZ 1004b4a5 f i libucrt:input.obj
 0001:0004a4c1       ?validate@?$input_adapter_character_source@V?$string_input_adapter@D@__crt_stdio_input@@@__crt_strtox@@QBE_NXZ 1004b4c1 f i libucrt:input.obj
 0001:0004a4e2       ?validate@?$string_input_adapter@D@__crt_stdio_input@@QAE_NXZ 1004b4e2 f i libucrt:input.obj
 0001:0004a504       ?write_character@?$input_processor@DV?$string_input_adapter@D@__crt_stdio_input@@@__crt_stdio_input@@AAE_NQA_WIAAPA_WAAID@Z 1004b504 f i libucrt:input.obj
 0001:0004a575       ?write_integer@?$input_processor@DV?$string_input_adapter@D@__crt_stdio_input@@@__crt_stdio_input@@AAE_N_K_N@Z 1004b575 f i libucrt:input.obj
 0001:0004a5ec       ___stdio_common_vsscanf    1004b5ec f   libucrt:input.obj
 0001:0004a610       ??$?RV<lambda_123407a5e2ac06da108355a851863b7a>@@AAV<lambda_2fe9b910cf3cbf4a0ab98a02ba45b3ec>@@V<lambda_ae55bdf541ad94d75914d381c370e64d>@@@?$__crt_seh_guarded_call@H@@QAEH$$QAV<lambda_123407a5e2ac06da108355a851863b7a>@@AAV<lambda_2fe9b910cf3cbf4a0ab98a02ba45b3ec>@@$$QAV<lambda_ae55bdf541ad94d75914d381c370e64d>@@@Z 1004b610 f i libucrt:close.obj
 0001:0004a692       ??$__acrt_lowio_lock_fh_and_call@V<lambda_2fe9b910cf3cbf4a0ab98a02ba45b3ec>@@@@YAHH$$QAV<lambda_2fe9b910cf3cbf4a0ab98a02ba45b3ec>@@@Z 1004b692 f i libucrt:close.obj
 0001:0004a6ba       __close                    1004b6ba f   libucrt:close.obj
 0001:0004a739       __close_nolock             1004b739 f   libucrt:close.obj
 0001:0004a7d5       ___acrt_initialize_new_handler 1004b7d5 f   libucrt:new_handler.obj
 0001:0004a7e9       __callnewh                 1004b7e9 f   libucrt:new_handler.obj
 0001:0004a82d       __query_new_handler        1004b82d f   libucrt:new_handler.obj
 0001:0004a87f       __initterm                 1004b87f f   libucrt:initterm.obj
 0001:0004a8db       __initterm_e               1004b8db f   libucrt:initterm.obj
 0001:0004a920       __seh_filter_dll           1004b920 f   libucrt:exception_filter.obj
 0001:0004a940       __seh_filter_exe           1004b940 f   libucrt:exception_filter.obj
 0001:0004ad4c       ___acrt_allocate_buffer_for_argv 1004bd4c f   libucrt:argv_parsing.obj
 0001:0004ada1       __configure_narrow_argv    1004bda1 f   libucrt:argv_parsing.obj
 0001:0004af05       ??$uninitialize@A6AXAAPAPAD@Z@?$dual_state_global@PAPAD@__crt_state_management@@QAEXA6AXAAPAPAD@Z@Z 1004bf05 f i libucrt:environment_initialization.obj
 0001:0004af05       ??$uninitialize@A6AXAAPAPA_W@Z@?$dual_state_global@PAPA_W@__crt_state_management@@QAEXA6AXAAPAPA_W@Z@Z 1004bf05 f i libucrt:environment_initialization.obj
 0001:0004af7b       ?initialize@?$dual_state_global@P6AXPB_W00II@Z@__crt_state_management@@QAEXQ6AXPB_W00II@Z@Z 1004bf7b f i libucrt:invalid_parameter.obj
 0001:0004af7b       ?initialize@?$dual_state_global@PAPAD@__crt_state_management@@QAEXQAPAD@Z 1004bf7b f i libucrt:environment_initialization.obj
 0001:0004af7b       ?initialize@?$dual_state_global@P6AHPAU_exception@@@Z@__crt_state_management@@QAEXQ6AHPAU_exception@@@Z@Z 1004bf7b f i libucrt:matherr.obj
 0001:0004af7b       ?initialize@?$dual_state_global@PAU__crt_locale_data@@@__crt_state_management@@QAEXQAU__crt_locale_data@@@Z 1004bf7b f i libucrt:initialization.obj
 0001:0004af7b       ?initialize@?$dual_state_global@P6AHI@Z@__crt_state_management@@QAEXQ6AHI@Z@Z 1004bf7b f i libucrt:new_handler.obj
 0001:0004af7b       ?initialize@?$dual_state_global@P6AXH@Z@__crt_state_management@@QAEXQ6AXH@Z@Z 1004bf7b f i libucrt:signal.obj
 0001:0004afac       ___dcrt_uninitialize_environments_nolock 1004bfac f   libucrt:environment_initialization.obj
 0001:0004afe3       __initialize_narrow_environment 1004bfe3 f   libucrt:environment_initialization.obj
 0001:0004afe8       ??$?RV<lambda_800076c951b434888f4765a74a194fcc>@@AAV<lambda_4e60a939b0d047cfe11ddc22648dfba9>@@V<lambda_6dbb1268764f43b569ce7b67e331d33a>@@@?$__crt_seh_guarded_call@H@@QAEH$$QAV<lambda_800076c951b434888f4765a74a194fcc>@@AAV<lambda_4e60a939b0d047cfe11ddc22648dfba9>@@$$QAV<lambda_6dbb1268764f43b569ce7b67e331d33a>@@@Z 1004bfe8 f i libucrt:onexit.obj
 0001:0004b039       ??$?RV<lambda_995298e7d72eb4c2aab26c0585b3abe5>@@AAV<lambda_275893d493268fdec8709772e3fcec0e>@@V<lambda_293819299cbf9a7022e18b56a874bb5c>@@@?$__crt_seh_guarded_call@H@@QAEH$$QAV<lambda_995298e7d72eb4c2aab26c0585b3abe5>@@AAV<lambda_275893d493268fdec8709772e3fcec0e>@@$$QAV<lambda_293819299cbf9a7022e18b56a874bb5c>@@@Z 1004c039 f i libucrt:onexit.obj
 0001:0004b08a       ??$__acrt_lock_and_call@V<lambda_275893d493268fdec8709772e3fcec0e>@@@@YAHW4__acrt_lock_id@@$$QAV<lambda_275893d493268fdec8709772e3fcec0e>@@@Z 1004c08a f i libucrt:onexit.obj
 0001:0004b0b2       ??$__acrt_lock_and_call@V<lambda_4e60a939b0d047cfe11ddc22648dfba9>@@@@YAHW4__acrt_lock_id@@$$QAV<lambda_4e60a939b0d047cfe11ddc22648dfba9>@@@Z 1004c0b2 f i libucrt:onexit.obj
 0001:0004b0da       ??$__crt_fast_encode_pointer@P6AHXZ@@YAP6AHXZQ6AHXZ@Z 1004c0da f i libucrt:onexit.obj
 0001:0004b35a       __crt_atexit               1004c35a f   libucrt:onexit.obj
 0001:0004b370       __execute_onexit_table     1004c370 f   libucrt:onexit.obj
 0001:0004b38d       __initialize_onexit_table  1004c38d f   libucrt:onexit.obj
 0001:0004b3ca       __register_onexit_function 1004c3ca f   libucrt:onexit.obj
 0001:0004b4df       ___acrt_uninitialize_command_line 1004c4df f   libucrt:argv_data.obj
 0001:0004b4e2       ___acrt_initialize         1004c4e2 f   libucrt:initialization.obj
 0001:0004b4f4       ___acrt_thread_attach      1004c4f4 f   libucrt:initialization.obj
 0001:0004b4ff       ___acrt_thread_detach      1004c4ff f   libucrt:initialization.obj
 0001:0004b507       ___acrt_uninitialize       1004c507 f   libucrt:initialization.obj
 0001:0004b519       ___acrt_uninitialize_critical 1004c519 f   libucrt:initialization.obj
 0001:0004b52b       _terminate                 1004c52b f   libucrt:terminate.obj
 0001:0004ba4f       _read                      1004ca4f f   libucrt:read.obj
 0001:0004ba4f       __read                     1004ca4f f   libucrt:read.obj
 0001:0004bb62       __read_nolock              1004cb62 f   libucrt:read.obj
 0001:0004c260       __lseek                    1004d260 f   libucrt:lseek.obj
 0001:0004c260       _lseek                     1004d260 f   libucrt:lseek.obj
 0001:0004c26b       __lseeki64                 1004d26b f   libucrt:lseek.obj
 0001:0004c286       __lseeki64_nolock          1004d286 f   libucrt:lseek.obj
 0001:0004c2a1       _strcpy_s                  1004d2a1 f   libucrt:strcpy_s.obj
 0001:0004c2fb       __free_base                1004d2fb f   libucrt:free_base.obj
 0001:0004c335       __malloc_base              1004d335 f   libucrt:malloc_base.obj
 0001:0004c383       _abort                     1004d383 f   libucrt:abort.obj
 0001:0004c3c6       __calloc_base              1004d3c6 f   libucrt:calloc_base.obj
 0001:0004c423       ___acrt_call_reportfault   1004d423 f   libucrt:invalid_parameter.obj
 0001:0004c55e       ___acrt_initialize_invalid_parameter_handler 1004d55e f   libucrt:invalid_parameter.obj
 0001:0004c572       __invalid_parameter        1004d572 f   libucrt:invalid_parameter.obj
 0001:0004c5ed       __invalid_parameter_noinfo 1004d5ed f   libucrt:invalid_parameter.obj
 0001:0004c5fd       __invoke_watson            1004d5fd f   libucrt:invalid_parameter.obj
 0001:0004c630       __query_app_type           1004d630 f   libucrt:report_runtime_error.obj
 0001:0004c636       ??$?RV<lambda_a048d3beccc847880fc8490e18b82769>@@AAV<lambda_ec61778202f4f5fc7e7711acc23c3bca>@@V<lambda_f7496a158712204296dd6628a163878e>@@@?$__crt_seh_guarded_call@P6AXH@Z@@QAEP6AXH@Z$$QAV<lambda_a048d3beccc847880fc8490e18b82769>@@AAV<lambda_ec61778202f4f5fc7e7711acc23c3bca>@@$$QAV<lambda_f7496a158712204296dd6628a163878e>@@@Z 1004d636 f i libucrt:signal.obj
 0001:0004c690       ??$__acrt_lock_and_call@V<lambda_ec61778202f4f5fc7e7711acc23c3bca>@@@@YAP6AXH@ZW4__acrt_lock_id@@$$QAV<lambda_ec61778202f4f5fc7e7711acc23c3bca>@@@Z 1004d690 f i libucrt:signal.obj
 0001:0004c722       ___acrt_get_sigabrt_handler 1004d722 f   libucrt:signal.obj
 0001:0004c739       ___acrt_initialize_signal_handlers 1004d739 f   libucrt:signal.obj
 0001:0004c774       ___fpecode                 1004d774 f   libucrt:signal.obj
 0001:0004c77d       _raise                     1004d77d f   libucrt:signal.obj
 0001:0004c985       ??$?RV<lambda_3518db117f0e7cdb002338c5d3c47b6c>@@AAV<lambda_b2ea41f6bbb362cd97d94c6828d90b61>@@V<lambda_abdedf541bb04549bc734292b4a045d4>@@@?$__crt_seh_guarded_call@X@@QAEX$$QAV<lambda_3518db117f0e7cdb002338c5d3c47b6c>@@AAV<lambda_b2ea41f6bbb362cd97d94c6828d90b61>@@$$QAV<lambda_abdedf541bb04549bc734292b4a045d4>@@@Z 1004d985 f i libucrt:per_thread_data.obj
 0001:0004c9d5       ??$?RV<lambda_51b6e8b1eb166f2a3faf91f424b38130>@@AAV<lambda_6250bd4b2a391816dd638c3bf72b0bcb>@@V<lambda_0b5a4a3e68152e1d9b943535f5f47bed>@@@?$__crt_seh_guarded_call@X@@QAEX$$QAV<lambda_51b6e8b1eb166f2a3faf91f424b38130>@@AAV<lambda_6250bd4b2a391816dd638c3bf72b0bcb>@@$$QAV<lambda_0b5a4a3e68152e1d9b943535f5f47bed>@@@Z 1004d9d5 f i libucrt:per_thread_data.obj
 0001:0004ca36       ??$?RV<lambda_5b71d36f03204c0beab531769a5b5694>@@AAV<lambda_be2b3da3f62db62e9dad5dc70221a656>@@V<lambda_8f9ce462984622f9bf76b59e2aaaf805>@@@?$__crt_seh_guarded_call@X@@QAEX$$QAV<lambda_5b71d36f03204c0beab531769a5b5694>@@AAV<lambda_be2b3da3f62db62e9dad5dc70221a656>@@$$QAV<lambda_8f9ce462984622f9bf76b59e2aaaf805>@@@Z 1004da36 f i libucrt:per_thread_data.obj
 0001:0004ca81       ??$?RV<lambda_9df27f884b057bc3edfc946cb5b7cf47>@@AAV<lambda_e69574bed617af4e071282c136b37893>@@V<lambda_cc0d902bcbbeb830f749456577db4721>@@@?$__crt_seh_guarded_call@X@@QAEX$$QAV<lambda_9df27f884b057bc3edfc946cb5b7cf47>@@AAV<lambda_e69574bed617af4e071282c136b37893>@@$$QAV<lambda_cc0d902bcbbeb830f749456577db4721>@@@Z 1004da81 f i libucrt:per_thread_data.obj
 0001:0004cac9       ??$__acrt_lock_and_call@V<lambda_6250bd4b2a391816dd638c3bf72b0bcb>@@@@YAXW4__acrt_lock_id@@$$QAV<lambda_6250bd4b2a391816dd638c3bf72b0bcb>@@@Z 1004dac9 f i libucrt:per_thread_data.obj
 0001:0004caf1       ??$__acrt_lock_and_call@V<lambda_b2ea41f6bbb362cd97d94c6828d90b61>@@@@YAXW4__acrt_lock_id@@$$QAV<lambda_b2ea41f6bbb362cd97d94c6828d90b61>@@@Z 1004daf1 f i libucrt:per_thread_data.obj
 0001:0004cb19       ??$__acrt_lock_and_call@V<lambda_be2b3da3f62db62e9dad5dc70221a656>@@@@YAXW4__acrt_lock_id@@$$QAV<lambda_be2b3da3f62db62e9dad5dc70221a656>@@@Z 1004db19 f i libucrt:per_thread_data.obj
 0001:0004cb41       ??$__acrt_lock_and_call@V<lambda_e69574bed617af4e071282c136b37893>@@@@YAXW4__acrt_lock_id@@$$QAV<lambda_e69574bed617af4e071282c136b37893>@@@Z 1004db41 f i libucrt:per_thread_data.obj
 0001:0004ccf7       ___acrt_freeptd            1004dcf7 f   libucrt:per_thread_data.obj
 0001:0004cd23       ___acrt_getptd             1004dd23 f   libucrt:per_thread_data.obj
 0001:0004cda7       ___acrt_getptd_noexit      1004dda7 f   libucrt:per_thread_data.obj
 0001:0004ce2c       ___acrt_initialize_ptd     1004de2c f   libucrt:per_thread_data.obj
 0001:0004ce58       ___acrt_uninitialize_ptd   1004de58 f   libucrt:per_thread_data.obj
 0001:0004ce72       ___acrt_update_locale_info 1004de72 f   libucrt:locale_update.obj
 0001:0004ce9f       ___acrt_update_multibyte_info 1004de9f f   libucrt:locale_update.obj
 0001:0004cecc       ___acrt_set_locale_changed 1004decc f   libucrt:wsetlocale.obj
 0001:0004ced7       ___acrt_uninitialize_locale 1004ded7 f   libucrt:wsetlocale.obj
 0001:0004d095       ___acrt_initialize_lowio   1004e095 f   libucrt:ioinit.obj
 0001:0004d0eb       ___acrt_uninitialize_lowio 1004e0eb f   libucrt:ioinit.obj
 0001:0004d117       ___pctype_func             1004e117 f   libucrt:ctype.obj
 0001:0004d13d       __isleadbyte_l             1004e13d f i libucrt:_wctype.obj
 0001:0004d176       __isctype_l                1004e176 f   libucrt:isctype.obj
 0001:0004d465       ___acrt_LCMapStringA       1004e465 f   libucrt:lcmapstringa.obj
 0001:0004d4b0       __freea_crt                1004e4b0 f i libucrt:lcmapstringa.obj
 0001:0004d4d0       __isdigit_l                1004e4d0 f i libucrt:_ctype.obj
 0001:0004d508       __isspace_l                1004e508 f i libucrt:_ctype.obj
 0001:0004d540       _isdigit                   1004e540 f i libucrt:_ctype.obj
 0001:0004d56d       _isspace                   1004e56d f i libucrt:_ctype.obj
 0001:0004d59a       __mbtowc_l                 1004e59a f   libucrt:mbtowc.obj
 0001:0004d694       _mbtowc                    1004e694 f   libucrt:mbtowc.obj
 0001:0004d6ae       __wctomb_s_l               1004e6ae f   libucrt:wctomb.obj
 0001:0004d7cf       _wctomb_s                  1004e7cf f   libucrt:wctomb.obj
 0001:0004d7ec       _strnlen                   1004e7ec f   libucrt:strnlen.obj
 0001:0004d913       _wcsnlen                   1004e913 f   libucrt:strnlen.obj
 0001:0004daca       ?__acrt_fp_classify@@YA?AW4__acrt_fp_class@@ABN@Z 1004eaca f i libucrt:cvt.obj
 0001:0004db36       ?__acrt_fp_is_negative@@YA_NABN@Z 1004eb36 f i libucrt:cvt.obj
 0001:0004e395       ___acrt_fp_format          1004f395 f   libucrt:cvt.obj
 0001:0004e4df       __fileno                   1004f4df f   libucrt:fileno.obj
 0001:0004e505       __fputc_nolock             1004f505 f   libucrt:fputc.obj
 0001:0004e52e       __get_printf_count_output  1004f52e f   libucrt:printf_count_output.obj
 0001:0004e543       ___acrt_stdio_begin_temporary_buffering_nolock 1004f543 f   libucrt:_sftbuf.obj
 0001:0004e5f8       ___acrt_stdio_end_temporary_buffering_nolock 1004f5f8 f   libucrt:_sftbuf.obj
 0001:0004e748       ___acrt_FlsAlloc@4         1004f748 f   libucrt:winapi_thunks.obj
 0001:0004e79e       ___acrt_FlsFree@4          1004f79e f   libucrt:winapi_thunks.obj
 0001:0004e7f4       ___acrt_FlsGetValue@4      1004f7f4 f   libucrt:winapi_thunks.obj
 0001:0004e84a       ___acrt_FlsSetValue@8      1004f84a f   libucrt:winapi_thunks.obj
 0001:0004e8a3       ___acrt_InitializeCriticalSectionEx@12 1004f8a3 f   libucrt:winapi_thunks.obj
 0001:0004e905       ___acrt_LCMapStringEx@36   1004f905 f   libucrt:winapi_thunks.obj
 0001:0004e98d       ___acrt_LocaleNameToLCID@8 1004f98d f   libucrt:winapi_thunks.obj
 0001:0004e9e9       ___acrt_initialize_winapi_thunks 1004f9e9 f   libucrt:winapi_thunks.obj
 0001:0004ea0f       ___acrt_is_packaged_app    1004fa0f f   libucrt:winapi_thunks.obj
 0001:0004ea96       ___acrt_uninitialize_winapi_thunks 1004fa96 f   libucrt:winapi_thunks.obj
 0001:0004eacc       __fcloseall                1004facc f   libucrt:closeall.obj
 0001:0004eb6c       ___acrt_stdio_free_buffer_nolock 1004fb6c f   libucrt:_freebuf.obj
 0001:0004ebaa       ___acrt_initialize_locks   1004fbaa f   libucrt:locks.obj
 0001:0004ebeb       ___acrt_lock               1004fbeb f   libucrt:locks.obj
 0001:0004ec02       ___acrt_uninitialize_locks 1004fc02 f   libucrt:locks.obj
 0001:0004ec33       ___acrt_unlock             1004fc33 f   libucrt:locks.obj
 0001:0004ec4a       ??$?RV<lambda_61cee617f5178ae960314fd4d05640a0>@@AAV<lambda_6978c1fb23f02e42e1d9e99668cc68aa>@@V<lambda_9cd88cf8ad10232537feb2133f08c833>@@@?$__crt_seh_guarded_call@H@@QAEH$$QAV<lambda_61cee617f5178ae960314fd4d05640a0>@@AAV<lambda_6978c1fb23f02e42e1d9e99668cc68aa>@@$$QAV<lambda_9cd88cf8ad10232537feb2133f08c833>@@@Z 1004fc4a f i libucrt:commit.obj
 0001:0004ece2       ??$__acrt_lowio_lock_fh_and_call@V<lambda_6978c1fb23f02e42e1d9e99668cc68aa>@@@@YAHH$$QAV<lambda_6978c1fb23f02e42e1d9e99668cc68aa>@@@Z 1004fce2 f i libucrt:commit.obj
 0001:0004ed0a       __commit                   1004fd0a f   libucrt:commit.obj
 0001:0004f309       __write                    10050309 f   libucrt:write.obj
 0001:0004f3f4       __write_nolock             100503f4 f   libucrt:write.obj
 0001:0004f7dd       ___acrt_stdio_flush_and_write_narrow_nolock 100507dd f   libucrt:_flsbuf.obj
 0001:0004f7f0       ___ascii_strnicmp          100507f0 f   libucrt:_strnicm.obj
 0001:0004f851       _fegetround                10050851 f   libucrt:fegetround.obj
 0001:0004f90d       _strncpy_s                 1005090d f   libucrt:strncpy_s.obj
 0001:0004f918       __realloc_base             10050918 f   libucrt:realloc_base.obj
 0001:0004f981       ___acrt_lowio_create_handle_array 10050981 f   libucrt:osfinfo.obj
 0001:0004f9fb       ___acrt_lowio_destroy_handle_array 100509fb f   libucrt:osfinfo.obj
 0001:0004fa30       ___acrt_lowio_ensure_fh_exists 10050a30 f   libucrt:osfinfo.obj
 0001:0004fac8       ___acrt_lowio_lock_fh      10050ac8 f   libucrt:osfinfo.obj
 0001:0004faeb       ___acrt_lowio_unlock_fh    10050aeb f   libucrt:osfinfo.obj
 0001:0004fb0e       __free_osfhnd              10050b0e f   libucrt:osfinfo.obj
 0001:0004fb9f       __get_osfhandle            10050b9f f   libucrt:osfinfo.obj
 0001:0004ffcb       ??1?$argument_list@D@?A0xb0e4b824@@QAE@XZ 10050fcb f i libucrt:argv_wildcards.obj
 0001:0004fff0       ?append@?$argument_list@D@?A0xb0e4b824@@QAEHQAD@Z 10050ff0 f i libucrt:argv_wildcards.obj
 0001:00050025       ?expand_if_necessary@?$argument_list@D@?A0xb0e4b824@@AAEHXZ 10051025 f i libucrt:argv_wildcards.obj
 0001:000500ac       ___acrt_expand_narrow_argv_wildcards 100510ac f   libucrt:argv_wildcards.obj
 0001:000500b7       ??$?RV<lambda_978dc153c237d78434369da87b74ff60>@@AAV<lambda_ad1ced32f4ac17aa236e5ef05d6b3b7c>@@V<lambda_4a8533e2866a575feecb8298ce776b0d>@@@?$__crt_seh_guarded_call@X@@QAEX$$QAV<lambda_978dc153c237d78434369da87b74ff60>@@AAV<lambda_ad1ced32f4ac17aa236e5ef05d6b3b7c>@@$$QAV<lambda_4a8533e2866a575feecb8298ce776b0d>@@@Z 100510b7 f i libucrt:mbctype.obj
 0001:000500fa       ??$__acrt_lock_and_call@V<lambda_ad1ced32f4ac17aa236e5ef05d6b3b7c>@@@@YAXW4__acrt_lock_id@@$$QAV<lambda_ad1ced32f4ac17aa236e5ef05d6b3b7c>@@@Z 100510fa f i libucrt:mbctype.obj
 0001:00050591       ___acrt_initialize_multibyte 10051591 f   libucrt:mbctype.obj
 0001:000505af       ___acrt_update_thread_multibyte_data 100515af f   libucrt:mbctype.obj
 0001:00050651       __setmbcp_nolock           10051651 f   libucrt:mbctype.obj
 0001:0005089b       __ismbblead                1005189b f   libucrt:ismbbyte.obj
 0001:000508b3       ___acrt_initialize_command_line 100518b3 f   libucrt:argv_data.obj
 0001:00050903       ___dcrt_get_narrow_environment_from_os 10051903 f   libucrt:get_environment_from_os.obj
 0001:00050986       __recalloc                 10051986 f   libucrt:recalloc.obj
 0001:00050991       __recalloc_base            10051991 f   libucrt:recalloc.obj
 0001:000509fe       ___acrt_initialize_heap    100519fe f   libucrt:heap_handle.obj
 0001:00050a0f       ___acrt_uninitialize_heap  10051a0f f   libucrt:heap_handle.obj
 0001:00050a19       ___acrt_execute_initializers 10051a19 f   libucrt:shared_initialization.obj
 0001:00050a9c       ___acrt_execute_uninitializers 10051a9c f   libucrt:shared_initialization.obj
 0001:00050ae9       ___acrt_has_user_matherr   10051ae9 f   libucrt:matherr.obj
 0001:00050b02       ___acrt_initialize_user_matherr 10051b02 f   libucrt:matherr.obj
 0001:00050b16       ___acrt_invoke_user_matherr 10051b16 f   libucrt:matherr.obj
 0001:00050b5f       __isatty                   10051b5f f   libucrt:isatty.obj
 0001:00050bb5       __query_new_mode           10051bb5 f   libucrt:new_mode.obj
 0001:00050bbb       ___acrt_add_locale_ref     10051bbb f   libucrt:locale_refcounting.obj
 0001:00050c38       ___acrt_free_locale        10051c38 f   libucrt:locale_refcounting.obj
 0001:00050d82       ___acrt_locale_add_lc_time_reference 10051d82 f   libucrt:locale_refcounting.obj
 0001:00050dab       ___acrt_locale_free_lc_time_if_unreferenced 10051dab f   libucrt:locale_refcounting.obj
 0001:00050ddb       ___acrt_locale_release_lc_time_reference 10051ddb f   libucrt:locale_refcounting.obj
 0001:00050e04       ___acrt_release_locale_ref 10051e04 f   libucrt:locale_refcounting.obj
 0001:00050e85       ___acrt_update_thread_locale_data 10051e85 f   libucrt:locale_refcounting.obj
 0001:00050efc       __updatetlocinfoEx_nolock  10051efc f   libucrt:locale_refcounting.obj
 0001:00050f4c       ___acrt_locale_free_monetary 10051f4c f   libucrt:initmon.obj
 0001:0005104a       ___acrt_locale_free_numeric 1005204a f   libucrt:initnum.obj
 0001:000510ef       ___acrt_locale_free_time   100520ef f   libucrt:inittime.obj
 0001:000511d3       ___acrt_GetStringTypeA     100521d3 f   libucrt:getstringtypea.obj
 0001:000512f0       ___strncnt                 100522f0 f   libucrt:strncnt.obj
 0001:0005130c       ___acrt_fp_strflt_to_string 1005230c f   libucrt:_fptostr.obj
 0001:000513c8       ??0scoped_fp_state_reset@?A0x48fbfdd4@@QAE@XZ 100523c8 f i libucrt:cfout.obj
 0001:000513f2       ___acrt_fltout             100523f2 f   libucrt:cfout.obj
 0001:0005284a       ___acrt_DownlevelLocaleNameToLCID 1005384a f   libucrt:lcidtoname_downlevel.obj
 0001:00052876       __fclose_nolock            10053876 f   libucrt:fclose.obj
 0001:000528ec       _fclose                    100538ec f   libucrt:fclose.obj
 0001:0005296c       __putwch_nolock            1005396c f   libucrt:putwch.obj
 0001:000529b1       ___acrt_stdio_allocate_buffer_nolock 100539b1 f   libucrt:_getbuf.obj
 0001:00052cb1       __getfpcontrolword         10053cb1 f   libucrt:_fenvutils.obj
 0001:00052cf4       __getfpstatusword          10053cf4 f   libucrt:_fenvutils.obj
 0001:00052d9c       __setfpcontrolword         10053d9c f   libucrt:_fenvutils.obj
 0001:00052e1c       __setfpstatusword          10053e1c f   libucrt:_fenvutils.obj
 0001:00052ea0       _strpbrk                   10053ea0 f   libucrt:strpbrk.obj
 0001:00052ee0       __mbsdec                   10053ee0 f   libucrt:mbsdec.obj
 0001:00052ef7       __mbsdec_l                 10053ef7 f   libucrt:mbsdec.obj
 0001:00052f93       __msize                    10053f93 f   libucrt:msize.obj
 0001:00052fc6       _fegetenv                  10053fc6 f   libucrt:fegetenv.obj
 0001:00052fe3       _fesetenv                  10053fe3 f   libucrt:fesetenv.obj
 0001:0005302c       _feholdexcept              1005402c f   libucrt:feholdexcept.obj
 0001:00053080       _log10                     10054080 f   libucrt:log10.obj
 0001:000530c0       __CIlog10                  100540c0 f   libucrt:log10.obj
 0001:000530fb       __CIlog10_default          100540fb f   libucrt:log10.obj
 0001:0005310f       __log10_default            1005410f     libucrt:log10.obj
 0001:000531d0       _ceil                      100541d0 f   libucrt:ceil_pentium4.obj
 0001:00053210       __ceil_pentium4            10054210 f   libucrt:ceil_pentium4.obj
 0001:000532ed       ?__acrt_stdio_free_stream@@YAXV__crt_stdio_stream@@@Z 100542ed f   libucrt:stream.obj
 0001:00053328       ___dcrt_lowio_initialize_console_output 10054328 f   libucrt:initcon.obj
 0001:00053347       ___dcrt_terminate_console_output 10054347 f   libucrt:initcon.obj
 0001:0005335e       __clearfp                  1005435e f   libucrt:ieee87.obj
 0001:0005343c       ___acrt_initialize_sse2    1005443c f   libucrt:mathfcns.obj
 0001:00053450       __CIlog10_pentium4         10054450 f   libucrt:log10_pentium4.obj
 0001:00053468       __log10_pentium4           10054468     libucrt:log10_pentium4.obj
 0001:000536f1       __fFEXP                    100546f1     libucrt:87tran.obj
 0001:00053748       __rtinfpopse               10054748     libucrt:87tran.obj
 0001:0005374a       __rtinfnpopse              1005474a     libucrt:87tran.obj
 0001:0005375a       __fFLN                     1005475a     libucrt:87tran.obj
 0001:0005380f       __rtinfpop                 1005480f     libucrt:87tran.obj
 0001:00053811       __rtinfnpop                10054811     libucrt:87tran.obj
 0001:0005382e       __ffexpm1                  1005482e     libucrt:87tran.obj
 0001:000538e0       __trandisp1                100548e0 f   libucrt:87disp.obj
 0001:00053947       __trandisp2                10054947 f   libucrt:87disp.obj
 0001:000539d3       __rttospopde               100549d3     libucrt:87disp.obj
 0001:000539d8       __rttospop                 100549d8     libucrt:87disp.obj
 0001:000539da       __rtnospop                 100549da     libucrt:87disp.obj
 0001:000539dc       __rttosnpop                100549dc     libucrt:87disp.obj
 0001:000539dd       __rtnospopde               100549dd     libucrt:87disp.obj
 0001:000539e4       __rtzeropop                100549e4     libucrt:87disp.obj
 0001:000539e6       __rtzeronpop               100549e6     libucrt:87disp.obj
 0001:000539eb       __rtzerospop               100549eb     libucrt:87disp.obj
 0001:000539f8       __rtonepop                 100549f8     libucrt:87disp.obj
 0001:000539fa       __rtonenpop                100549fa     libucrt:87disp.obj
 0001:000539ff       __tosnan1                  100549ff     libucrt:87disp.obj
 0001:00053a2a       __nosnan2                  10054a2a     libucrt:87disp.obj
 0001:00053a2c       __tosnan2                  10054a2c     libucrt:87disp.obj
 0001:00053a54       __nan2                     10054a54     libucrt:87disp.obj
 0001:00053a93       __rtindfpop                10054a93     libucrt:87disp.obj
 0001:00053a95       __rtindfnpop               10054a95     libucrt:87disp.obj
 0001:00053aa6       __rttosnpopde              10054aa6     libucrt:87disp.obj
 0001:00053ab0       __rtatan2inf               10054ab0     libucrt:87disp.obj
 0001:00053acd       __rtchsifneg               10054acd     libucrt:87disp.obj
 0001:00053ae0       __twoToTOS                 10054ae0 f   libucrt:common.obj
 0001:00053af5       __load_CW                  10054af5 f   libucrt:common.obj
 0001:00053b0c       __convertTOStoQNaN         10054b0c f   libucrt:common.obj
 0001:00053b25       __fload_withFB             10054b25 f   libucrt:common.obj
 0001:00053b68       __checkTOS_withFB          10054b68 f   libucrt:common.obj
 0001:00053b7e       __fast_exit                10054b7e f   libucrt:common.obj
 0001:00053b8b       __math_exit                10054b8b f   libucrt:common.obj
 0001:00053bb5       __check_overflow_exit      10054bb5 f   libucrt:common.obj
 0001:00053bc9       __check_range_exit         10054bc9 f   libucrt:common.obj
 0001:00053c70       __startTwoArgErrorHandling 10054c70 f   libucrt:genexcep.obj
 0001:00053c87       __startOneArgErrorHandling 10054c87 f   libucrt:genexcep.obj
 0001:00053cc3       ___libm_error_support      10054cc3 f   libucrt:libm_error.obj
 0001:00053edb       __ceil_default             10054edb f   libucrt:ceil.obj
 0001:00053f94       __clrfp                    10054f94 f   libucrt:fpctrl.obj
 0001:00053fa7       __ctrlfp                   10054fa7 f   libucrt:fpctrl.obj
 0001:00053fd3       __set_statfp               10054fd3 f   libucrt:fpctrl.obj
 0001:0005402e       __statfp                   1005502e f   libucrt:fpctrl.obj
 0001:00054040       __d_inttype                10055040 f   libucrt:powhlp.obj
 0001:000540aa       __powhlp                   100550aa f   libucrt:powhlp.obj
 0001:000541d5       __87except                 100551d5 f   libucrt:87except.obj
 0001:000542e0       __frnd                     100552e0 f   libucrt:frnd.obj
 0001:000542f6       __errcode                  100552f6 f   libucrt:fpexcept.obj
 0001:0005432a       __except1                  1005532a f   libucrt:fpexcept.obj
 0001:000543f8       __handle_exc               100553f8 f   libucrt:fpexcept.obj
 0001:000545d8       __raise_exc                100555d8 f   libucrt:fpexcept.obj
 0001:000545fb       __raise_exc_ex             100555fb f   libucrt:fpexcept.obj
 0001:000548ec       __set_errno_from_matherr   100558ec f   libucrt:fpexcept.obj
 0001:0005491b       __umatherr                 1005591b f   libucrt:fpexcept.obj
 0001:000549bd       __decomp                   100559bd f   libucrt:util.obj
 0001:00054a91       __set_exp                  10055a91 f   libucrt:util.obj
 0001:00054ac0       __sptype                   10055ac0 f   libucrt:util.obj
 0001:00054b1e       __fpclass                  10055b1e f   libucrt:ieeemisc.obj
 0001:00054bc2       _IsProcessorFeaturePresent@4 10055bc2 f   kernel32:KERNEL32.dll
 0001:00054bc8       _RtlUnwind@16              10055bc8 f   kernel32:KERNEL32.dll
 0001:00054bce       ?DloadAcquireSectionWriteAccess@@YGXXZ 10055bce f i DelayImp:delayhlp.obj
 0001:00054c01       ?DloadGetSRWLockFunctionPointers@@YGEXZ 10055c01 f i DelayImp:delayhlp.obj
 0001:00054c7c       ?DloadLock@@YGXXZ          10055c7c f i DelayImp:delayhlp.obj
 0001:00054cd9       ?DloadMakePermanentImageCommit@@YGXPAXK@Z 10055cd9 f i DelayImp:delayhlp.obj
 0001:00054d4b       ?DloadObtainSection@@YGPAXPAK0@Z 10055d4b f i DelayImp:delayhlp.obj
 0001:00054dce       ?DloadProtectSection@@YGXKPAK@Z 10055dce f i DelayImp:delayhlp.obj
 0001:00054e3e       ?DloadReleaseSectionWriteAccess@@YGXXZ 10055e3e f i DelayImp:delayhlp.obj
 0001:00054e76       ?DloadUnlock@@YGXXZ        10055e76 f i DelayImp:delayhlp.obj
 0001:00054ec0       ___delayLoadHelper2@8      10055ec0 f   DelayImp:delayhlp.obj
 0001:00055150       __FindPESection            10056150 f   LIBCMT:pesect.obj
 0001:000551a0       __IsNonwritableInCurrentImage 100561a0 f   LIBCMT:pesect.obj
 0001:00055260       __ValidateImageBase        10056260 f   LIBCMT:pesect.obj
 0001:000552a0       __aulldvrm                 100562a0 f   LIBCMT:ulldvrm.obj
 0001:00055340       __allmul                   10056340 f   LIBCMT:llmul.obj
 0001:00055380       __alldiv                   10056380 f   LIBCMT:lldiv.obj
 0001:00055430       __alloca_probe             10056430 f   LIBCMT:chkstk.obj
 0001:00055430       __chkstk                   10056430 f   LIBCMT:chkstk.obj
 0001:00055460       __SEH_prolog4_GS           10056460 f   LIBCMT:_sehprolg4gs_.obj
 0001:000554a9       __SEH_epilog4_GS           100564a9 f   LIBCMT:_sehprolg4gs_.obj
 0001:000554c0       __allshl                   100564c0 f   LIBCMT:llshl.obj
 0001:000554e0       __aullshr                  100564e0 f   LIBCMT:ullshr.obj
 0001:00055500       __alloca_probe_16          10056500 f   LIBCMT:alloca16.obj
 0001:00055516       __alloca_probe_8           10056516     LIBCMT:alloca16.obj
 0001:00055530       __alldvrm                  10056530 f   LIBCMT:lldvrm.obj
 0001:00055610       __ftol2_sse                10056610 f   LIBCMT:_ftol2_.obj
 0001:00055619       __ftol2_pentium4           10056619 f   LIBCMT:_ftol2_.obj
 0001:0005562c       __ftol2_sse_excpt          1005662c f   LIBCMT:_ftol2_.obj
 0001:00055650       __ftol2                    10056650 f   LIBCMT:_ftol2_.obj
 0001:000556d0       _memcpy                    100566d0 f   libvcruntime:memcpy.obj
 0001:00055c50       _strrchr                   10056c50 f   libvcruntime:strrchr.obj
 0001:00055d90       ___vdecl_cos2              10056d90 f   LIBCMT:_svml_dcos2_dispatch_.obj
 0001:00055da0       ___vdecl_log2              10056da0 f   LIBCMT:_svml_dlog2_dispatch_.obj
 0001:00055db0       ___vdecl_pow2              10056db0 f   LIBCMT:_svml_dpow2_dispatch_.obj
 0001:00055dc0       __ftoui3                   10056dc0 f   LIBCMT:_ftol3_.obj
 0001:00055dcf       __ftoul3                   10056dcf f   LIBCMT:_ftol3_.obj
 0001:00055dde       __ftol3                    10056dde f   LIBCMT:_ftol3_.obj
 0001:00055deb       __ftol3_NaN                10056deb f   LIBCMT:_ftol3_.obj
 0001:00055e03       __ftol3_work               10056e03 f   LIBCMT:_ftol3_.obj
 0001:00055e89       __ftol3_common             10056e89 f   LIBCMT:_ftol3_.obj
 0001:00055f4b       __ftol3_arg_error          10056f4b f   LIBCMT:_ftol3_.obj
 0001:00055f5d       __ftol3_except             10056f5d f   LIBCMT:_ftol3_.obj
 0001:00055fa1       __dtoui3                   10056fa1 f   LIBCMT:_ftol3_.obj
 0001:00055fb0       __dtoul3                   10056fb0 f   LIBCMT:_ftol3_.obj
 0001:00055fbf       __dtol3                    10056fbf f   LIBCMT:_ftol3_.obj
 0001:00055fcc       __dtol3_NaN                10056fcc f   LIBCMT:_ftol3_.obj
 0001:00055fe9       __dtol3_work               10056fe9 f   LIBCMT:_ftol3_.obj
 0001:000560d0       __ultod3                   100570d0 f   LIBCMT:_ftol3_.obj
 0001:00056110       __ltod3                    10057110 f   LIBCMT:_ftol3_.obj
 0001:00056140       ___sse2_cos2               10057140 f   LIBCMT:_svml_dcos2_sse2_.obj
 0001:000562e0       ___sse2_log2               100572e0 f   LIBCMT:_svml_dlog2_sse2_.obj
 0001:00057150       ___sse2_pow2               10058150 f   LIBCMT:_svml_dpow2_sse2_.obj
 0001:000575a0       ___common_sin_reduction_LA 100585a0 f   LIBCMT:_svml_dtrig_.obj
 0001:000578f0       ___common_cos_reduction_LA 100588f0 f   LIBCMT:_svml_dtrig_.obj
 0001:00057be0       ___common_pi04_reduction_LA 10058be0 f   LIBCMT:_svml_dtrig_.obj
 0001:00057ef0       __libm_sse2_atan_precise   10058ef0 f   libucrt:atan_sse2_precise.obj
 0001:000581e0       __libm_sse2_cos_precise    100591e0 f   libucrt:cos_sse2_precise.obj
 0001:000583a0       __libm_sse2_exp_precise    100593a0 f   libucrt:exp_sse2_precise.obj
 0001:00058680       __libm_sse2_log10_precise  10059680 f   libucrt:log10_sse2_precise.obj
 0001:00058930       __libm_sse2_log_precise    10059930 f   libucrt:log_sse2_precise.obj
 0001:00058bd0       __libm_sse2_pow_precise    10059bd0 f   libucrt:pow_sse2_precise.obj
 0001:00059720       __libm_sse2_sin_precise    1005a720 f   libucrt:sin_sse2_precise.obj
 0001:000598f0       __libm_sse2_sqrt_precise   1005a8f0 f   libucrt:sqrt_sse2_precise.obj
 0001:000599f0       __libm_sse2_tan_precise    1005a9f0 f   libucrt:tan_sse2_precise.obj
 0001:00059c60       _floor                     1005ac60 f   libucrt:floor_pentium4.obj
 0001:00059ca0       __floor_pentium4           1005aca0 f   libucrt:floor_pentium4.obj
 0001:00059d60       _atan                      1005ad60 f   libucrt:atan.obj
 0001:00059da0       __CIatan                   1005ada0 f   libucrt:atan.obj
 0001:00059ddb       __CIatan_default           1005addb f   libucrt:atan.obj
 0001:00059def       __atan_default             1005adef     libucrt:atan.obj
 0001:00059e80       _cos                       1005ae80 f   libucrt:cos.obj
 0001:00059ec0       __CIcos                    1005aec0 f   libucrt:cos.obj
 0001:00059efb       __CIcos_default            1005aefb f   libucrt:cos.obj
 0001:00059f0f       __cos_default              1005af0f     libucrt:cos.obj
 0001:00059fb0       _exp                       1005afb0 f   libucrt:87ctran.obj
 0001:00059fec       __CIexp                    1005afec f   libucrt:87ctran.obj
 0001:0005a027       __exp_default              1005b027 f   libucrt:87ctran.obj
 0001:0005a031       __CIexp_default            1005b031 f   libucrt:87ctran.obj
 0001:0005a040       _log                       1005b040 f   libucrt:log.obj
 0001:0005a080       __CIlog                    1005b080 f   libucrt:log.obj
 0001:0005a0bb       __CIlog_default            1005b0bb f   libucrt:log.obj
 0001:0005a0cf       __log_default              1005b0cf     libucrt:log.obj
 0001:0005a190       _pow                       1005b190 f   libucrt:pow.obj
 0001:0005a1d0       __CIpow                    1005b1d0 f   libucrt:pow.obj
 0001:0005a20b       __CIpow_default            1005b20b f   libucrt:pow.obj
 0001:0005a224       __pow_default              1005b224     libucrt:pow.obj
 0001:0005a420       _sin                       1005b420 f   libucrt:sin.obj
 0001:0005a460       __CIsin                    1005b460 f   libucrt:sin.obj
 0001:0005a49b       __CIsin_default            1005b49b f   libucrt:sin.obj
 0001:0005a4af       __sin_default              1005b4af     libucrt:sin.obj
 0001:0005a550       __CIsqrt                   1005b550 f   libucrt:sqrt.obj
 0001:0005a564       _sqrt                      1005b564     libucrt:sqrt.obj
 0001:0005a610       _tan                       1005b610 f   libucrt:tan.obj
 0001:0005a650       __CItan                    1005b650 f   libucrt:tan.obj
 0001:0005a68b       __CItan_default            1005b68b f   libucrt:tan.obj
 0001:0005a69f       __tan_default              1005b69f     libucrt:tan.obj
 0001:0005a736       __floor_default            1005b736 f   libucrt:floor.obj
 0001:0005a7f0       __CIatan_pentium4          1005b7f0 f   libucrt:atan_pentium4.obj
 0001:0005a808       __atan_pentium4            1005b808     libucrt:atan_pentium4.obj
 0001:0005aac0       __CIcos_pentium4           1005bac0 f   libucrt:cos_pentium4.obj
 0001:0005aad8       __cos_pentium4             1005bad8     libucrt:cos_pentium4.obj
 0001:0005ac70       __CIexp_pentium4           1005bc70 f   libucrt:exp_pentium4.obj
 0001:0005ac88       __exp_pentium4             1005bc88     libucrt:exp_pentium4.obj
 0001:0005af30       __cintrindisp2             1005bf30 f   libucrt:87cdisp.obj
 0001:0005af74       __cintrindisp1             1005bf74 f   libucrt:87cdisp.obj
 0001:0005afb7       __ctrandisp2               1005bfb7 f   libucrt:87cdisp.obj
 0001:0005b146       __ctrandisp1               1005c146 f   libucrt:87cdisp.obj
 0001:0005b179       __fload                    1005c179 f   libucrt:87cdisp.obj
 0001:0005b1c0       __CIlog_pentium4           1005c1c0 f   libucrt:log_pentium4.obj
 0001:0005b1d8       __log_pentium4             1005c1d8     libucrt:log_pentium4.obj
 0001:0005b430       __CIpow_pentium4           1005c430 f   libucrt:pow_pentium4.obj
 0001:0005b449       __pow_pentium4             1005c449     libucrt:pow_pentium4.obj
 0001:0005bf50       __CIsin_pentium4           1005cf50 f   libucrt:sin_pentium4.obj
 0001:0005bf68       __sin_pentium4             1005cf68     libucrt:sin_pentium4.obj
 0001:0005c120       __CItan_pentium4           1005d120 f   libucrt:tan_pentium4.obj
 0001:0005c138       __tan_pentium4             1005d138     libucrt:tan_pentium4.obj
 0002:00000000       __imp__GetModuleHandleA@4  1005e000     kernel32:KERNEL32.dll
 0002:00000004       __imp__UnhandledExceptionFilter@4 1005e004     kernel32:KERNEL32.dll
 0002:00000008       __imp__SetUnhandledExceptionFilter@4 1005e008     kernel32:KERNEL32.dll
 0002:0000000c       __imp__GetCurrentProcess@0 1005e00c     kernel32:KERNEL32.dll
 0002:00000010       __imp__TerminateProcess@8  1005e010     kernel32:KERNEL32.dll
 0002:00000014       __imp__IsProcessorFeaturePresent@4 1005e014     kernel32:KERNEL32.dll
 0002:00000018       __imp__QueryPerformanceCounter@4 1005e018     kernel32:KERNEL32.dll
 0002:0000001c       __imp__GetCurrentProcessId@0 1005e01c     kernel32:KERNEL32.dll
 0002:00000020       __imp__GetCurrentThreadId@0 1005e020     kernel32:KERNEL32.dll
 0002:00000024       __imp__GetSystemTimeAsFileTime@4 1005e024     kernel32:KERNEL32.dll
 0002:00000028       __imp__InitializeSListHead@4 1005e028     kernel32:KERNEL32.dll
 0002:0000002c       __imp__IsDebuggerPresent@0 1005e02c     kernel32:KERNEL32.dll
 0002:00000030       __imp__GetStartupInfoW@4   1005e030     kernel32:KERNEL32.dll
 0002:00000034       __imp__GetModuleHandleW@4  1005e034     kernel32:KERNEL32.dll
 0002:00000038       __imp__RaiseException@16   1005e038     kernel32:KERNEL32.dll
 0002:0000003c       __imp__InterlockedFlushSList@4 1005e03c     kernel32:KERNEL32.dll
 0002:00000040       __imp__RtlUnwind@16        1005e040     kernel32:KERNEL32.dll
 0002:00000044       __imp__GetLastError@0      1005e044     kernel32:KERNEL32.dll
 0002:00000048       __imp__SetLastError@4      1005e048     kernel32:KERNEL32.dll
 0002:0000004c       __imp__EnterCriticalSection@4 1005e04c     kernel32:KERNEL32.dll
 0002:00000050       __imp__LeaveCriticalSection@4 1005e050     kernel32:KERNEL32.dll
 0002:00000054       __imp__DeleteCriticalSection@4 1005e054     kernel32:KERNEL32.dll
 0002:00000058       __imp__InitializeCriticalSectionAndSpinCount@8 1005e058     kernel32:KERNEL32.dll
 0002:0000005c       __imp__TlsAlloc@0          1005e05c     kernel32:KERNEL32.dll
 0002:00000060       __imp__TlsGetValue@4       1005e060     kernel32:KERNEL32.dll
 0002:00000064       __imp__TlsSetValue@8       1005e064     kernel32:KERNEL32.dll
 0002:00000068       __imp__TlsFree@4           1005e068     kernel32:KERNEL32.dll
 0002:0000006c       __imp__FreeLibrary@4       1005e06c     kernel32:KERNEL32.dll
 0002:00000070       __imp__GetProcAddress@8    1005e070     kernel32:KERNEL32.dll
 0002:00000074       __imp__LoadLibraryExW@12   1005e074     kernel32:KERNEL32.dll
 0002:00000078       __imp__GetStdHandle@4      1005e078     kernel32:KERNEL32.dll
 0002:0000007c       __imp__GetFileType@4       1005e07c     kernel32:KERNEL32.dll
 0002:00000080       __imp__GetModuleFileNameA@12 1005e080     kernel32:KERNEL32.dll
 0002:00000084       __imp__GetModuleHandleExW@12 1005e084     kernel32:KERNEL32.dll
 0002:00000088       __imp__WriteConsoleW@20    1005e088     kernel32:KERNEL32.dll
 0002:0000008c       __imp__ReadFile@20         1005e08c     kernel32:KERNEL32.dll
 0002:00000090       __imp__ExitProcess@4       1005e090     kernel32:KERNEL32.dll
 0002:00000094       __imp__CloseHandle@4       1005e094     kernel32:KERNEL32.dll
 0002:00000098       __imp__CreateFileW@28      1005e098     kernel32:KERNEL32.dll
 0002:0000009c       __imp__MultiByteToWideChar@24 1005e09c     kernel32:KERNEL32.dll
 0002:000000a0       __imp__WideCharToMultiByte@32 1005e0a0     kernel32:KERNEL32.dll
 0002:000000a4       __imp__GetConsoleMode@8    1005e0a4     kernel32:KERNEL32.dll
 0002:000000a8       __imp__ReadConsoleW@20     1005e0a8     kernel32:KERNEL32.dll
 0002:000000ac       __imp__SetFilePointerEx@20 1005e0ac     kernel32:KERNEL32.dll
 0002:000000b0       __imp__HeapFree@12         1005e0b0     kernel32:KERNEL32.dll
 0002:000000b4       __imp__HeapAlloc@12        1005e0b4     kernel32:KERNEL32.dll
 0002:000000b8       __imp__WriteFile@20        1005e0b8     kernel32:KERNEL32.dll
 0002:000000bc       __imp__GetACP@0            1005e0bc     kernel32:KERNEL32.dll
 0002:000000c0       __imp__GetStringTypeW@16   1005e0c0     kernel32:KERNEL32.dll
 0002:000000c4       __imp__LCMapStringW@24     1005e0c4     kernel32:KERNEL32.dll
 0002:000000c8       __imp__FlushFileBuffers@4  1005e0c8     kernel32:KERNEL32.dll
 0002:000000cc       __imp__GetConsoleCP@0      1005e0cc     kernel32:KERNEL32.dll
 0002:000000d0       __imp__HeapReAlloc@16      1005e0d0     kernel32:KERNEL32.dll
 0002:000000d4       __imp__SetStdHandle@8      1005e0d4     kernel32:KERNEL32.dll
 0002:000000d8       __imp__FindClose@4         1005e0d8     kernel32:KERNEL32.dll
 0002:000000dc       __imp__FindFirstFileExA@24 1005e0dc     kernel32:KERNEL32.dll
 0002:000000e0       __imp__FindNextFileA@8     1005e0e0     kernel32:KERNEL32.dll
 0002:000000e4       __imp__IsValidCodePage@4   1005e0e4     kernel32:KERNEL32.dll
 0002:000000e8       __imp__GetOEMCP@0          1005e0e8     kernel32:KERNEL32.dll
 0002:000000ec       __imp__GetCPInfo@8         1005e0ec     kernel32:KERNEL32.dll
 0002:000000f0       __imp__GetCommandLineA@0   1005e0f0     kernel32:KERNEL32.dll
 0002:000000f4       __imp__GetCommandLineW@0   1005e0f4     kernel32:KERNEL32.dll
 0002:000000f8       __imp__GetEnvironmentStringsW@0 1005e0f8     kernel32:KERNEL32.dll
 0002:000000fc       __imp__FreeEnvironmentStringsW@4 1005e0fc     kernel32:KERNEL32.dll
 0002:00000100       __imp__GetProcessHeap@0    1005e100     kernel32:KERNEL32.dll
 0002:00000104       __imp__HeapSize@12         1005e104     kernel32:KERNEL32.dll
 0002:00000108       __imp__DecodePointer@4     1005e108     kernel32:KERNEL32.dll
 0002:0000010c       __imp__GetSystemInfo@4     1005e10c     kernel32:KERNEL32.dll
 0002:00000110       __imp__VirtualProtect@16   1005e110     kernel32:KERNEL32.dll
 0002:00000114       __imp__VirtualQuery@12     1005e114     kernel32:KERNEL32.dll
 0002:00000118       __imp__LoadLibraryExA@12   1005e118     kernel32:KERNEL32.dll
 0002:0000011c       \177KERNEL32_NULL_THUNK_DATA 1005e11c     kernel32:KERNEL32.dll
 0002:00000120       ___guard_check_icall_fptr  1005e120     LIBCMT:guard_support.obj
 0002:00000124       ___xc_a                    1005e124     LIBCMT:initializers.obj
 0002:00000128       __register_bindings_       1005e128     bindings.obj
 0002:0000012c       ___xc_z                    1005e12c     LIBCMT:initializers.obj
 0002:00000130       ___xi_a                    1005e130     LIBCMT:initializers.obj
 0002:00000134       ___acrt_stdio_initializer  1005e134     libucrt:stdio_initializer.obj
 0002:00000138       ___acrt_multibyte_initializer 1005e138     libucrt:multibyte_initializer.obj
 0002:0000013c       ___acrt_tran_sse2_initializer 1005e13c     libucrt:sse2_initializer.obj
 0002:00000140       ___xi_z                    1005e140     LIBCMT:initializers.obj
 0002:00000144       ___xp_a                    1005e144     LIBCMT:initializers.obj
 0002:00000148       ___acrt_locale_terminator  1005e148     libucrt:locale_initializer.obj
 0002:0000014c       ___dcrt_console_output_terminator 1005e14c     libucrt:console_output_initializer.obj
 0002:00000150       ___acrt_stdio_terminator   1005e150     libucrt:stdio_initializer.obj
 0002:00000154       ___xp_z                    1005e154     LIBCMT:initializers.obj
 0002:00000158       ___xt_a                    1005e158     LIBCMT:initializers.obj
 0002:0000015c       ___xt_z                    1005e15c     LIBCMT:initializers.obj
 0002:00000160       __sz_node_exe              1005e160     node:node.exe
 0002:0000016c       __pRawDllMain              1005e16c     LIBCMT:dll_dllmain.obj
 0002:0000016c       __pDefaultRawDllMain       1005e16c     LIBCMT:dll_dllmain.obj
 0002:0000017c       ??_7exception@std@@6B@     1005e17c     LIBCMT:throw_bad_alloc.obj
 0002:00000184       ??_C@_0BC@EOODALEL@Unknown?5exception?$AA@ 1005e184     LIBCMT:throw_bad_alloc.obj
 0002:0000019c       ??_7bad_alloc@std@@6B@     1005e19c     LIBCMT:throw_bad_alloc.obj
 0002:000001a4       ??_C@_0P@GHFPNOJB@bad?5allocation?$AA@ 1005e1a4     LIBCMT:throw_bad_alloc.obj
 0002:000001b8       ??_7bad_array_new_length@std@@6B@ 1005e1b8     LIBCMT:throw_bad_alloc.obj
 0002:000001c0       ??_C@_0BF@KINCDENJ@bad?5array?5new?5length?$AA@ 1005e1c0     LIBCMT:throw_bad_alloc.obj
 0002:000001dc       ??_7type_info@@6B@         1005e1dc     LIBCMT:std_type_info_static.obj
 0002:00000210       ??_C@_1BC@DNHGCMLG@?$AAa?$AAd?$AAv?$AAa?$AAp?$AAi?$AA3?$AA2?$AA?$AA@ 1005e210     libvcruntime:winapi_downlevel.obj
 0002:00000224       ??_C@_1DM@KHCHBNEB@?$AAa?$AAp?$AAi?$AA?9?$AAm?$AAs?$AA?9?$AAw?$AAi?$AAn?$AA?9?$AAc?$AAo?$AAr?$AAe?$AA?9?$AAf?$AAi?$AAb?$AAe?$AAr?$AAs?$AA?9?$AAl?$AA1?$AA?9?$AA1?$AA?9?$AA1?$AA?$AA@ 1005e224     libvcruntime:winapi_downlevel.obj
 0002:00000260       ??_C@_1DK@LPPGFMPP@?$AAa?$AAp?$AAi?$AA?9?$AAm?$AAs?$AA?9?$AAw?$AAi?$AAn?$AA?9?$AAc?$AAo?$AAr?$AAe?$AA?9?$AAs?$AAy?$AAn?$AAc?$AAh?$AA?9?$AAl?$AA1?$AA?9?$AA2?$AA?9?$AA0?$AA?$AA@ 1005e260     libvcruntime:winapi_downlevel.obj
 0002:0000029c       ??_C@_1BC@GDMECMAK@?$AAk?$AAe?$AAr?$AAn?$AAe?$AAl?$AA3?$AA2?$AA?$AA@ 1005e29c     libvcruntime:winapi_downlevel.obj
 0002:000002b8       ??_C@_08KNHFBNJ@FlsAlloc?$AA@ 1005e2b8     libvcruntime:winapi_downlevel.obj
 0002:000002cc       ??_C@_07PEJMOBNF@FlsFree?$AA@ 1005e2cc     libvcruntime:winapi_downlevel.obj
 0002:000002dc       ??_C@_0M@GDNOONDI@FlsGetValue?$AA@ 1005e2dc     libvcruntime:winapi_downlevel.obj
 0002:000002f0       ??_C@_0M@JCPCPOEF@FlsSetValue?$AA@ 1005e2f0     libvcruntime:winapi_downlevel.obj
 0002:00000304       ??_C@_0BM@HCFOFFN@InitializeCriticalSectionEx?$AA@ 1005e304     libvcruntime:winapi_downlevel.obj
 0002:000004b0       ??_C@_08EHJDFFNH@__based?$CI?$AA@ 1005e4b0     libvcruntime:undname.obj
 0002:000004bc       ??_C@_07KOLFKCDI@__cdecl?$AA@ 1005e4bc     libvcruntime:undname.obj
 0002:000004c4       ??_C@_08GHMPAG@__pascal?$AA@ 1005e4c4     libvcruntime:undname.obj
 0002:000004d0       ??_C@_09IFJBGAPI@__stdcall?$AA@ 1005e4d0     libvcruntime:undname.obj
 0002:000004dc       ??_C@_0L@NPHFGOKO@__thiscall?$AA@ 1005e4dc     libvcruntime:undname.obj
 0002:000004e8       ??_C@_0L@JMKHOMEK@__fastcall?$AA@ 1005e4e8     libvcruntime:undname.obj
 0002:000004f4       ??_C@_0N@BCKKPABJ@__vectorcall?$AA@ 1005e4f4     libvcruntime:undname.obj
 0002:00000504       ??_C@_09HIJEGCPM@__clrcall?$AA@ 1005e504     libvcruntime:undname.obj
 0002:00000510       ??_C@_06GHPCKEAG@__eabi?$AA@ 1005e510     libvcruntime:undname.obj
 0002:00000518       ??_C@_07JOMMBBKO@__ptr64?$AA@ 1005e518     libvcruntime:undname.obj
 0002:00000520       ??_C@_0L@PILCLIHE@__restrict?$AA@ 1005e520     libvcruntime:undname.obj
 0002:0000052c       ??_C@_0M@GFIIJFMG@__unaligned?$AA@ 1005e52c     libvcruntime:undname.obj
 0002:00000538       ??_C@_09DHDLOLLB@restrict?$CI?$AA@ 1005e538     libvcruntime:undname.obj
 0002:00000544       ??_C@_04NIHEBCM@?5new?$AA@ 1005e544     libvcruntime:undname.obj
 0002:0000054c       ??_C@_07FPCDHGMM@?5delete?$AA@ 1005e54c     libvcruntime:undname.obj
 0002:00000554       ??_C@_01NEMOKFLO@?$DN?$AA@ 1005e554     libvcruntime:undname.obj
 0002:00000558       ??_C@_02GPIOPFAK@?$DO?$DO?$AA@ 1005e558     libvcruntime:undname.obj
 0002:0000055c       ??_C@_02FODMEDOG@?$DM?$DM?$AA@ 1005e55c     libvcruntime:undname.obj
 0002:00000560       ??_C@_01DCLJPIOD@?$CB?$AA@ 1005e560     libvcruntime:undname.obj
 0002:00000564       ??_C@_02EGOFBIJA@?$DN?$DN?$AA@ 1005e564     libvcruntime:undname.obj
 0002:00000568       ??_C@_02FDNJECIE@?$CB?$DN?$AA@ 1005e568     libvcruntime:undname.obj
 0002:0000056c       ??_C@_02GPECMEKF@?$FL?$FN?$AA@ 1005e56c     libvcruntime:undname.obj
 0002:00000570       ??_C@_08LHJFAFGD@operator?$AA@ 1005e570     libvcruntime:undname.obj
 0002:0000057c       ??_C@_02HBOOOICD@?9?$DO?$AA@ 1005e57c     libvcruntime:undname.obj
 0002:00000580       ??_C@_01NBENCBCI@?$CK?$AA@ 1005e580     libvcruntime:undname.obj
 0002:00000584       ??_C@_02ECNGHCIF@?$CL?$CL?$AA@ 1005e584     libvcruntime:undname.obj
 0002:00000588       ??_C@_02BAABKJLB@?9?9?$AA@ 1005e588     libvcruntime:undname.obj
 0002:0000058c       ??_C@_01JOAMLHOP@?9?$AA@   1005e58c     libvcruntime:undname.obj
 0002:00000590       ??_C@_01MIFGBAGJ@?$CL?$AA@ 1005e590     libvcruntime:undname.obj
 0002:00000594       ??_C@_01HNPIGOCE@?$CG?$AA@ 1005e594     libvcruntime:undname.obj
 0002:00000598       ??_C@_03MNHNFDLC@?9?$DO?$CK?$AA@ 1005e598     libvcruntime:undname.obj
 0002:0000059c       ??_C@_01KMDKNFGN@?1?$AA@   1005e59c     libvcruntime:undname.obj
 0002:000005a0       ??_C@_01FGNFDNOH@?$CF?$AA@ 1005e5a0     libvcruntime:undname.obj
 0002:000005a4       ??_C@_01MNNFJEPP@?$DM?$AA@ 1005e5a4     libvcruntime:undname.obj
 0002:000005a8       ??_C@_02EHCHHCKH@?$DM?$DN?$AA@ 1005e5a8     libvcruntime:undname.obj
 0002:000005ac       ??_C@_01PPODPGHN@?$DO?$AA@ 1005e5ac     libvcruntime:undname.obj
 0002:000005b0       ??_C@_02EEKDKGMJ@?$DO?$DN?$AA@ 1005e5b0     libvcruntime:undname.obj
 0002:000005b4       ??_C@_01IHBHIGKO@?0?$AA@   1005e5b4     libvcruntime:undname.obj
 0002:000005b8       ??_C@_02HCKGKOFO@?$CI?$CJ?$AA@ 1005e5b8     libvcruntime:undname.obj
 0002:000005bc       ??_C@_01PJKLJHI@?$HO?$AA@  1005e5bc     libvcruntime:undname.obj
 0002:000005c0       ??_C@_01JKBOJNNK@?$FO?$AA@ 1005e5c0     libvcruntime:undname.obj
 0002:000005c4       ??_C@_01DNKMNLPK@?$HM?$AA@ 1005e5c4     libvcruntime:undname.obj
 0002:000005c8       ??_C@_02PPKAJPJL@?$CG?$CG?$AA@ 1005e5c8     libvcruntime:undname.obj
 0002:000005cc       ??_C@_02NONPIBCD@?$HM?$HM?$AA@ 1005e5cc     libvcruntime:undname.obj
 0002:000005d0       ??_C@_02FPIMKNGF@?$CK?$DN?$AA@ 1005e5d0     libvcruntime:undname.obj
 0002:000005d4       ??_C@_02FOEOMHFC@?$CL?$DN?$AA@ 1005e5d4     libvcruntime:undname.obj
 0002:000005d8       ??_C@_02FKMDLLOA@?9?$DN?$AA@ 1005e5d8     libvcruntime:undname.obj
 0002:000005dc       ??_C@_02FJEHGPIO@?1?$DN?$AA@ 1005e5dc     libvcruntime:undname.obj
 0002:000005e0       ??_C@_02FENAOKFI@?$CF?$DN?$AA@ 1005e5e0     libvcruntime:undname.obj
 0002:000005e4       ??_C@_03IKFCCPFF@?$DO?$DO?$DN?$AA@ 1005e5e4     libvcruntime:undname.obj
 0002:000005e8       ??_C@_03CDNPDDLA@?$DM?$DM?$DN?$AA@ 1005e5e8     libvcruntime:undname.obj
 0002:000005ec       ??_C@_02FGJGFEAB@?$CG?$DN?$AA@ 1005e5ec     libvcruntime:undname.obj
 0002:000005f0       ??_C@_02DHLNPPGH@?$HM?$DN?$AA@ 1005e5f0     libvcruntime:undname.obj
 0002:000005f4       ??_C@_02MHEGNOJ@?$FO?$DN?$AA@ 1005e5f4     libvcruntime:undname.obj
 0002:000005f8       ??_C@_09IFPLHPGF@?$GAvftable?8?$AA@ 1005e5f8     libvcruntime:undname.obj
 0002:00000604       ??_C@_09BLBHBJP@?$GAvbtable?8?$AA@ 1005e604     libvcruntime:undname.obj
 0002:00000610       ??_C@_07FEEIOKP@?$GAvcall?8?$AA@ 1005e610     libvcruntime:undname.obj
 0002:00000618       ??_C@_08LLFFHHDJ@?$GAtypeof?8?$AA@ 1005e618     libvcruntime:undname.obj
 0002:00000624       ??_C@_0BF@KDPPACIK@?$GAlocal?5static?5guard?8?$AA@ 1005e624     libvcruntime:undname.obj
 0002:0000063c       ??_C@_08OBABFOLI@?$GAstring?8?$AA@ 1005e63c     libvcruntime:undname.obj
 0002:00000648       ??_C@_0BD@JDLKDPAB@?$GAvbase?5destructor?8?$AA@ 1005e648     libvcruntime:undname.obj
 0002:0000065c       ??_C@_0BN@DEGPLNFK@?$GAvector?5deleting?5destructor?8?$AA@ 1005e65c     libvcruntime:undname.obj
 0002:0000067c       ??_C@_0BO@OBMKPJIG@?$GAdefault?5constructor?5closure?8?$AA@ 1005e67c     libvcruntime:undname.obj
 0002:0000069c       ??_C@_0BN@IMDCHIKM@?$GAscalar?5deleting?5destructor?8?$AA@ 1005e69c     libvcruntime:undname.obj
 0002:000006bc       ??_C@_0BO@PFGOCPJJ@?$GAvector?5constructor?5iterator?8?$AA@ 1005e6bc     libvcruntime:undname.obj
 0002:000006dc       ??_C@_0BN@LFPFMEDL@?$GAvector?5destructor?5iterator?8?$AA@ 1005e6dc     libvcruntime:undname.obj
 0002:000006fc       ??_C@_0CE@IKBNEHA@?$GAvector?5vbase?5constructor?5iterat@ 1005e6fc     libvcruntime:undname.obj
 0002:00000720       ??_C@_0BL@NILFHHPC@?$GAvirtual?5displacement?5map?8?$AA@ 1005e720     libvcruntime:undname.obj
 0002:0000073c       ??_C@_0CB@JONCMFFK@?$GAeh?5vector?5constructor?5iterator?8@ 1005e73c     libvcruntime:undname.obj
 0002:00000760       ??_C@_0CA@GCEOPDGL@?$GAeh?5vector?5destructor?5iterator?8?$AA@ 1005e760     libvcruntime:undname.obj
 0002:00000780       ??_C@_0CH@OOJPLCPH@?$GAeh?5vector?5vbase?5constructor?5ite@ 1005e780     libvcruntime:undname.obj
 0002:000007a8       ??_C@_0BL@LLKPOHJI@?$GAcopy?5constructor?5closure?8?$AA@ 1005e7a8     libvcruntime:undname.obj
 0002:000007c4       ??_C@_0BA@KBCDOMBN@?$GAudt?5returning?8?$AA@ 1005e7c4     libvcruntime:undname.obj
 0002:000007d4       ??_C@_03KLGMFNMG@?$GAEH?$AA@ 1005e7d4     libvcruntime:undname.obj
 0002:000007d8       ??_C@_05KHLCHHI@?$GARTTI?$AA@ 1005e7d8     libvcruntime:undname.obj
 0002:000007e0       ??_C@_0BA@KKLDJDLB@?$GAlocal?5vftable?8?$AA@ 1005e7e0     libvcruntime:undname.obj
 0002:000007f0       ??_C@_0CE@IIHCMGGL@?$GAlocal?5vftable?5constructor?5closu@ 1005e7f0     libvcruntime:undname.obj
 0002:00000814       ??_C@_06FHBGPFGH@?5new?$FL?$FN?$AA@ 1005e814     libvcruntime:undname.obj
 0002:0000081c       ??_C@_09LBNFPBCA@?5delete?$FL?$FN?$AA@ 1005e81c     libvcruntime:undname.obj
 0002:00000828       ??_C@_0P@HJKNJFNN@?$GAomni?5callsig?8?$AA@ 1005e828     libvcruntime:undname.obj
 0002:00000838       ??_C@_0BL@CNOONJFP@?$GAplacement?5delete?5closure?8?$AA@ 1005e838     libvcruntime:undname.obj
 0002:00000854       ??_C@_0BN@CKNJLHMB@?$GAplacement?5delete?$FL?$FN?5closure?8?$AA@ 1005e854     libvcruntime:undname.obj
 0002:00000874       ??_C@_0CG@CFDHKGGD@?$GAmanaged?5vector?5constructor?5iter@ 1005e874     libvcruntime:undname.obj
 0002:0000089c       ??_C@_0CF@IMGKMJNO@?$GAmanaged?5vector?5destructor?5itera@ 1005e89c     libvcruntime:undname.obj
 0002:000008c4       ??_C@_0CG@HLDDJMAG@?$GAeh?5vector?5copy?5constructor?5iter@ 1005e8c4     libvcruntime:undname.obj
 0002:000008ec       ??_C@_0CM@FCBBDIGB@?$GAeh?5vector?5vbase?5copy?5constructo@ 1005e8ec     libvcruntime:undname.obj
 0002:00000918       ??_C@_0BL@CLIPGLGB@?$GAdynamic?5initializer?5for?5?8?$AA@ 1005e918     libvcruntime:undname.obj
 0002:00000934       ??_C@_0CB@PDBIFEP@?$GAdynamic?5atexit?5destructor?5for?5?8@ 1005e934     libvcruntime:undname.obj
 0002:00000958       ??_C@_0CD@CGAJBKEJ@?$GAvector?5copy?5constructor?5iterato@ 1005e958     libvcruntime:undname.obj
 0002:0000097c       ??_C@_0CJ@GJELGAMM@?$GAvector?5vbase?5copy?5constructor?5i@ 1005e97c     libvcruntime:undname.obj
 0002:000009a8       ??_C@_0CL@FGIJHLCE@?$GAmanaged?5vector?5copy?5constructor@ 1005e9a8     libvcruntime:undname.obj
 0002:000009d4       ??_C@_0BM@PMGGMLDN@?$GAlocal?5static?5thread?5guard?8?$AA@ 1005e9d4     libvcruntime:undname.obj
 0002:000009f0       ??_C@_0N@BDNMDMOL@operator?5?$CC?$CC?5?$AA@ 1005e9f0     libvcruntime:undname.obj
 0002:00000a00       ??_C@_0BC@DAFEJGAK@?5Type?5Descriptor?8?$AA@ 1005ea00     libvcruntime:undname.obj
 0002:00000a14       ??_C@_0BM@LDKODKLH@?5Base?5Class?5Descriptor?5at?5?$CI?$AA@ 1005ea14     libvcruntime:undname.obj
 0002:00000a30       ??_C@_0BD@LGICGFMM@?5Base?5Class?5Array?8?$AA@ 1005ea30     libvcruntime:undname.obj
 0002:00000a44       ??_C@_0BN@MECKDCOJ@?5Class?5Hierarchy?5Descriptor?8?$AA@ 1005ea44     libvcruntime:undname.obj
 0002:00000a64       ??_C@_0BK@CFCOFLF@?5Complete?5Object?5Locator?8?$AA@ 1005ea64     libvcruntime:undname.obj
 0002:00000a80       _standard_lookup_table     1005ea80     libucrt:output.obj
 0002:00000adc       ??_C@_06OJHGLDPL@?$CInull?$CJ?$AA@ 1005eadc     libucrt:output.obj
 0002:00000ae4       ??_C@_1O@CEDCILHN@?$AA?$CI?$AAn?$AAu?$AAl?$AAl?$AA?$CJ?$AA?$AA@ 1005eae4     libucrt:output.obj
 0002:00000af4       ??_C@_1BI@BGOHAHKC@?$AAm?$AAs?$AAc?$AAo?$AAr?$AAe?$AAe?$AA?4?$AAd?$AAl?$AAl?$AA?$AA@ 1005eaf4     libucrt:exit.obj
 0002:00000b0c       ??_C@_0P@MIGLKIOC@CorExitProcess?$AA@ 1005eb0c     libucrt:exit.obj
 0002:00000b20       ?large_power_data@?1??multiply_by_power_of_ten@__crt_strtox@@YA_NAAUbig_integer@2@I@Z@4QBIB 1005eb20     libucrt:atof.obj
 0002:00001428       ?large_power_indices@?1??multiply_by_power_of_ten@__crt_strtox@@YA_NAAUbig_integer@2@I@Z@4QBUunpack_index@?1??12@YA_N0I@Z@B 1005f428     libucrt:atof.obj
 0002:000014c0       ?small_powers_of_ten@?6??multiply_by_power_of_ten@__crt_strtox@@YA_NAAUbig_integer@2@I@Z@4QBIB 1005f4c0     libucrt:atof.obj
 0002:000014e8       ??_C@_1GE@DPGDJKLM@?$AAm?$AAi?$AAn?$AAk?$AAe?$AAr?$AAn?$AAe?$AAl?$AA?2?$AAc?$AAr?$AAt?$AAs?$AA?2?$AAu?$AAc?$AAr?$AAt?$AA?2?$AAi?$AAn?$AAc?$AA?2?$AAc?$AAo?$AAr?$AAe?$AAc?$AAr?$AAt?$AA_@ 1005f4e8     libucrt:atof.obj
 0002:00001550       ??_C@_1FM@FELNCOBF@?$AA_?$AA_?$AAc?$AAr?$AAt?$AA_?$AAs?$AAt?$AAr?$AAt?$AAo?$AAx?$AA?3?$AA?3?$AAf?$AAl?$AAo?$AAa?$AAt?$AAi?$AAn?$AAg?$AA_?$AAp?$AAo?$AAi?$AAn?$AAt?$AA_?$AAv?$AAa?$AAl@ 1005f550     libucrt:atof.obj
 0002:000015ac       ??_C@_1BG@GEMHBGAF@?$AA_?$AAi?$AAs?$AA_?$AAd?$AAo?$AAu?$AAb?$AAl?$AAe?$AA?$AA@ 1005f5ac     libucrt:atof.obj
 0002:000015c8       ??_C@_1FK@JOJELFFO@?$AA_?$AA_?$AAc?$AAr?$AAt?$AA_?$AAs?$AAt?$AAr?$AAt?$AAo?$AAx?$AA?3?$AA?3?$AAf?$AAl?$AAo?$AAa?$AAt?$AAi?$AAn?$AAg?$AA_?$AAp?$AAo?$AAi?$AAn?$AAt?$AA_?$AAv?$AAa?$AAl@ 1005f5c8     libucrt:atof.obj
 0002:00001624       ??_C@_1BI@BANMPGJI@?$AA?$CB?$AA_?$AAi?$AAs?$AA_?$AAd?$AAo?$AAu?$AAb?$AAl?$AAe?$AA?$AA@ 1005f624     libucrt:atof.obj
 0002:0000163c       ?inf_uppercase@?2???$parse_floating_point_possible_infinity@DV?$c_string_character_source@D@__crt_strtox@@PBD@__crt_strtox@@YA?AW4floating_point_parse_result@1@AADAAV?$c_string_character_source@D@1@PBD@Z@4QBDB 1005f63c     libucrt:atof.obj
 0002:00001640       ?inf_lowercase@?2???$parse_floating_point_possible_infinity@DV?$c_string_character_source@D@__crt_strtox@@PBD@__crt_strtox@@YA?AW4floating_point_parse_result@1@AADAAV?$c_string_character_source@D@1@PBD@Z@4QBDB 1005f640     libucrt:atof.obj
 0002:00001644       ?inity_uppercase@?5???$parse_floating_point_possible_infinity@DV?$c_string_character_source@D@__crt_strtox@@PBD@__crt_strtox@@YA?AW4floating_point_parse_result@1@AADAAV?$c_string_character_source@D@1@PBD@Z@4QBDB 1005f644     libucrt:atof.obj
 0002:0000164c       ?inity_lowercase@?5???$parse_floating_point_possible_infinity@DV?$c_string_character_source@D@__crt_strtox@@PBD@__crt_strtox@@YA?AW4floating_point_parse_result@1@AADAAV?$c_string_character_source@D@1@PBD@Z@4QBDB 1005f64c     libucrt:atof.obj
 0002:00001654       ?uppercase@?2???$parse_floating_point_possible_nan@DV?$c_string_character_source@D@__crt_strtox@@PBD@__crt_strtox@@YA?AW4floating_point_parse_result@1@AADAAV?$c_string_character_source@D@1@PBD@Z@4QBDB 1005f654     libucrt:atof.obj
 0002:00001658       ?lowercase@?2???$parse_floating_point_possible_nan@DV?$c_string_character_source@D@__crt_strtox@@PBD@__crt_strtox@@YA?AW4floating_point_parse_result@1@AADAAV?$c_string_character_source@D@1@PBD@Z@4QBDB 1005f658     libucrt:atof.obj
 0002:0000165c       ?uppercase@?1???$parse_floating_point_possible_nan_is_snan@DV?$c_string_character_source@D@__crt_strtox@@@__crt_strtox@@YA_NAADAAV?$c_string_character_source@D@1@@Z@4QBDB 1005f65c     libucrt:atof.obj
 0002:00001664       ?lowercase@?1???$parse_floating_point_possible_nan_is_snan@DV?$c_string_character_source@D@__crt_strtox@@@__crt_strtox@@YA_NAADAAV?$c_string_character_source@D@1@@Z@4QBDB 1005f664     libucrt:atof.obj
 0002:0000166c       ?uppercase@?1???$parse_floating_point_possible_nan_is_ind@DV?$c_string_character_source@D@__crt_strtox@@@__crt_strtox@@YA_NAADAAV?$c_string_character_source@D@1@@Z@4QBDB 1005f66c     libucrt:atof.obj
 0002:00001670       ?lowercase@?1???$parse_floating_point_possible_nan_is_ind@DV?$c_string_character_source@D@__crt_strtox@@@__crt_strtox@@YA_NAADAAV?$c_string_character_source@D@1@@Z@4QBDB 1005f670     libucrt:atof.obj
 0002:000017e0       ?constraints@?1??is_length_valid@__crt_stdio_input@@YA_NW4conversion_mode@2@W4length_modifier@2@@Z@4QAY0M@$$CBEA 1005f7e0     libucrt:input.obj
 0002:00001858       ?inf_uppercase@?2???$parse_floating_point_possible_infinity@DV?$input_adapter_character_source@V?$string_input_adapter@D@__crt_stdio_input@@@__crt_strtox@@_K@__crt_strtox@@YA?AW4floating_point_parse_result@1@AADAAV?$input_adapter_character_source@V?$string_input_adapter@D@__crt_stdio_input@@@1@_K@Z@4QBDB 1005f858     libucrt:input.obj
 0002:0000185c       ?inf_lowercase@?2???$parse_floating_point_possible_infinity@DV?$input_adapter_character_source@V?$string_input_adapter@D@__crt_stdio_input@@@__crt_strtox@@_K@__crt_strtox@@YA?AW4floating_point_parse_result@1@AADAAV?$input_adapter_character_source@V?$string_input_adapter@D@__crt_stdio_input@@@1@_K@Z@4QBDB 1005f85c     libucrt:input.obj
 0002:00001860       ?inity_uppercase@?5???$parse_floating_point_possible_infinity@DV?$input_adapter_character_source@V?$string_input_adapter@D@__crt_stdio_input@@@__crt_strtox@@_K@__crt_strtox@@YA?AW4floating_point_parse_result@1@AADAAV?$input_adapter_character_source@V?$string_input_adapter@D@__crt_stdio_input@@@1@_K@Z@4QBDB 1005f860     libucrt:input.obj
 0002:00001868       ?inity_lowercase@?5???$parse_floating_point_possible_infinity@DV?$input_adapter_character_source@V?$string_input_adapter@D@__crt_stdio_input@@@__crt_strtox@@_K@__crt_strtox@@YA?AW4floating_point_parse_result@1@AADAAV?$input_adapter_character_source@V?$string_input_adapter@D@__crt_stdio_input@@@1@_K@Z@4QBDB 1005f868     libucrt:input.obj
 0002:00001870       ?uppercase@?2???$parse_floating_point_possible_nan@DV?$input_adapter_character_source@V?$string_input_adapter@D@__crt_stdio_input@@@__crt_strtox@@_K@__crt_strtox@@YA?AW4floating_point_parse_result@1@AADAAV?$input_adapter_character_source@V?$string_input_adapter@D@__crt_stdio_input@@@1@_K@Z@4QBDB 1005f870     libucrt:input.obj
 0002:00001874       ?lowercase@?2???$parse_floating_point_possible_nan@DV?$input_adapter_character_source@V?$string_input_adapter@D@__crt_stdio_input@@@__crt_strtox@@_K@__crt_strtox@@YA?AW4floating_point_parse_result@1@AADAAV?$input_adapter_character_source@V?$string_input_adapter@D@__crt_stdio_input@@@1@_K@Z@4QBDB 1005f874     libucrt:input.obj
 0002:00001878       ?uppercase@?1???$parse_floating_point_possible_nan_is_snan@DV?$input_adapter_character_source@V?$string_input_adapter@D@__crt_stdio_input@@@__crt_strtox@@@__crt_strtox@@YA_NAADAAV?$input_adapter_character_source@V?$string_input_adapter@D@__crt_stdio_input@@@1@@Z@4QBDB 1005f878     libucrt:input.obj
 0002:00001880       ?lowercase@?1???$parse_floating_point_possible_nan_is_snan@DV?$input_adapter_character_source@V?$string_input_adapter@D@__crt_stdio_input@@@__crt_strtox@@@__crt_strtox@@YA_NAADAAV?$input_adapter_character_source@V?$string_input_adapter@D@__crt_stdio_input@@@1@@Z@4QBDB 1005f880     libucrt:input.obj
 0002:00001888       ?uppercase@?1???$parse_floating_point_possible_nan_is_ind@DV?$input_adapter_character_source@V?$string_input_adapter@D@__crt_stdio_input@@@__crt_strtox@@@__crt_strtox@@YA_NAADAAV?$input_adapter_character_source@V?$string_input_adapter@D@__crt_stdio_input@@@1@@Z@4QBDB 1005f888     libucrt:input.obj
 0002:0000188c       ?lowercase@?1???$parse_floating_point_possible_nan_is_ind@DV?$input_adapter_character_source@V?$string_input_adapter@D@__crt_stdio_input@@@__crt_strtox@@@__crt_strtox@@YA_NAADAAV?$input_adapter_character_source@V?$string_input_adapter@D@__crt_stdio_input@@@1@@Z@4QBDB 1005f88c     libucrt:input.obj
 0002:00001890       ___acrt_exception_action_table 1005f890     libucrt:exception_filter.obj
 0002:00001920       ___acrt_signal_action_table_count 1005f920     libucrt:exception_filter.obj
 0002:00001924       ___acrt_signal_action_first_fpe_index 1005f924     libucrt:exception_filter.obj
 0002:00001928       ___acrt_signal_action_fpe_count 1005f928     libucrt:exception_filter.obj
 0002:000019a8       ??_C@_03KOEHGMDN@Sun?$AA@  1005f9a8     libucrt:nlsdata.obj
 0002:000019ac       ??_C@_03PDAGKDH@Mon?$AA@   1005f9ac     libucrt:nlsdata.obj
 0002:000019b0       ??_C@_03NAGEINEP@Tue?$AA@  1005f9b0     libucrt:nlsdata.obj
 0002:000019b4       ??_C@_03MHOMLAJA@Wed?$AA@  1005f9b4     libucrt:nlsdata.obj
 0002:000019b8       ??_C@_03IOFIKPDN@Thu?$AA@  1005f9b8     libucrt:nlsdata.obj
 0002:000019bc       ??_C@_03IDIOELNC@Fri?$AA@  1005f9bc     libucrt:nlsdata.obj
 0002:000019c0       ??_C@_03FEFJNEK@Sat?$AA@   1005f9c0     libucrt:nlsdata.obj
 0002:000019c4       ??_C@_06OOPIFAJ@Sunday?$AA@ 1005f9c4     libucrt:nlsdata.obj
 0002:000019cc       ??_C@_06JLEDEDGH@Monday?$AA@ 1005f9cc     libucrt:nlsdata.obj
 0002:000019d4       ??_C@_07BAAGCFCM@Tuesday?$AA@ 1005f9d4     libucrt:nlsdata.obj
 0002:000019dc       ??_C@_09DLIGFAKA@Wednesday?$AA@ 1005f9dc     libucrt:nlsdata.obj
 0002:000019e8       ??_C@_08HACCIKIA@Thursday?$AA@ 1005f9e8     libucrt:nlsdata.obj
 0002:000019f4       ??_C@_06JECMNKMI@Friday?$AA@ 1005f9f4     libucrt:nlsdata.obj
 0002:000019fc       ??_C@_08INBOOONO@Saturday?$AA@ 1005f9fc     libucrt:nlsdata.obj
 0002:00001a08       ??_C@_03JIHJHPIE@Jan?$AA@  1005fa08     libucrt:nlsdata.obj
 0002:00001a0c       ??_C@_03HJBDCHOM@Feb?$AA@  1005fa0c     libucrt:nlsdata.obj
 0002:00001a10       ??_C@_03ODNJBKGA@Mar?$AA@  1005fa10     libucrt:nlsdata.obj
 0002:00001a14       ??_C@_03LEOLGMJP@Apr?$AA@  1005fa14     libucrt:nlsdata.obj
 0002:00001a18       ??_C@_03CNMDKL@May?$AA@    1005fa18     libucrt:nlsdata.obj
 0002:00001a1c       ??_C@_03IDFGHECI@Jun?$AA@  1005fa1c     libucrt:nlsdata.obj
 0002:00001a20       ??_C@_03LBGABGKK@Jul?$AA@  1005fa20     libucrt:nlsdata.obj
 0002:00001a24       ??_C@_03IFJFEIGA@Aug?$AA@  1005fa24     libucrt:nlsdata.obj
 0002:00001a28       ??_C@_03GGCAPAJC@Sep?$AA@  1005fa28     libucrt:nlsdata.obj
 0002:00001a2c       ??_C@_03BMAOKBAD@Oct?$AA@  1005fa2c     libucrt:nlsdata.obj
 0002:00001a30       ??_C@_03JPJOFNIA@Nov?$AA@  1005fa30     libucrt:nlsdata.obj
 0002:00001a34       ??_C@_03MKABNOCG@Dec?$AA@  1005fa34     libucrt:nlsdata.obj
 0002:00001a38       ??_C@_07CGJPFGJA@January?$AA@ 1005fa38     libucrt:nlsdata.obj
 0002:00001a40       ??_C@_08GNJGEPFN@February?$AA@ 1005fa40     libucrt:nlsdata.obj
 0002:00001a4c       ??_C@_05HPCKOFNC@March?$AA@ 1005fa4c     libucrt:nlsdata.obj
 0002:00001a54       ??_C@_05DMJDNLEJ@April?$AA@ 1005fa54     libucrt:nlsdata.obj
 0002:00001a5c       ??_C@_04CNLMGBGM@June?$AA@ 1005fa5c     libucrt:nlsdata.obj
 0002:00001a64       ??_C@_04MIEPOIFP@July?$AA@ 1005fa64     libucrt:nlsdata.obj
 0002:00001a6c       ??_C@_06LBBHFDDG@August?$AA@ 1005fa6c     libucrt:nlsdata.obj
 0002:00001a74       ??_C@_09BHHEALKD@September?$AA@ 1005fa74     libucrt:nlsdata.obj
 0002:00001a80       ??_C@_07JJNFCEND@October?$AA@ 1005fa80     libucrt:nlsdata.obj
 0002:00001a88       ??_C@_08HCHEGEOA@November?$AA@ 1005fa88     libucrt:nlsdata.obj
 0002:00001a94       ??_C@_08EDHMEBNP@December?$AA@ 1005fa94     libucrt:nlsdata.obj
 0002:00001aa0       ??_C@_02DEDBPAFC@AM?$AA@   1005faa0     libucrt:nlsdata.obj
 0002:00001aa4       ??_C@_02CJNFDJBF@PM?$AA@   1005faa4     libucrt:nlsdata.obj
 0002:00001aa8       ??_C@_08BPBNCDIB@MM?1dd?1yy?$AA@ 1005faa8     libucrt:nlsdata.obj
 0002:00001ab4       ??_C@_0BE@CKGJFCPC@dddd?0?5MMMM?5dd?0?5yyyy?$AA@ 1005fab4     libucrt:nlsdata.obj
 0002:00001ac8       ??_C@_08JCCMCCIL@HH?3mm?3ss?$AA@ 1005fac8     libucrt:nlsdata.obj
 0002:00001ad4       ??_C@_17MBGCMIPB@?$AAS?$AAu?$AAn?$AA?$AA@ 1005fad4     libucrt:nlsdata.obj
 0002:00001adc       ??_C@_17KBOMKBF@?$AAM?$AAo?$AAn?$AA?$AA@ 1005fadc     libucrt:nlsdata.obj
 0002:00001ae4       ??_C@_17BMKGEGOJ@?$AAT?$AAu?$AAe?$AA?$AA@ 1005fae4     libucrt:nlsdata.obj
 0002:00001aec       ??_C@_17CJEDCEPE@?$AAW?$AAe?$AAd?$AA?$AA@ 1005faec     libucrt:nlsdata.obj
 0002:00001af4       ??_C@_17PDPHAADD@?$AAT?$AAh?$AAu?$AA?$AA@ 1005faf4     libucrt:nlsdata.obj
 0002:00001afc       ??_C@_17HFOLPPLP@?$AAF?$AAr?$AAi?$AA?$AA@ 1005fafc     libucrt:nlsdata.obj
 0002:00001b04       ??_C@_17GGIBDPIH@?$AAS?$AAa?$AAt?$AA?$AA@ 1005fb04     libucrt:nlsdata.obj
 0002:00001b0c       ??_C@_1O@IHNHDHPB@?$AAS?$AAu?$AAn?$AAd?$AAa?$AAy?$AA?$AA@ 1005fb0c     libucrt:nlsdata.obj
 0002:00001b1c       ??_C@_1O@MMNBFLIA@?$AAM?$AAo?$AAn?$AAd?$AAa?$AAy?$AA?$AA@ 1005fb1c     libucrt:nlsdata.obj
 0002:00001b2c       ??_C@_1BA@ENFBFFEK@?$AAT?$AAu?$AAe?$AAs?$AAd?$AAa?$AAy?$AA?$AA@ 1005fb2c     libucrt:nlsdata.obj
 0002:00001b3c       ??_C@_1BE@EBOGMDOH@?$AAW?$AAe?$AAd?$AAn?$AAe?$AAs?$AAd?$AAa?$AAy?$AA?$AA@ 1005fb3c     libucrt:nlsdata.obj
 0002:00001b50       ??_C@_1BC@HHMNLIHE@?$AAT?$AAh?$AAu?$AAr?$AAs?$AAd?$AAa?$AAy?$AA?$AA@ 1005fb50     libucrt:nlsdata.obj
 0002:00001b64       ??_C@_1O@PDICJHAG@?$AAF?$AAr?$AAi?$AAd?$AAa?$AAy?$AA?$AA@ 1005fb64     libucrt:nlsdata.obj
 0002:00001b74       ??_C@_1BC@ENMNNPAJ@?$AAS?$AAa?$AAt?$AAu?$AAr?$AAd?$AAa?$AAy?$AA?$AA@ 1005fb74     libucrt:nlsdata.obj
 0002:00001b88       ??_C@_17DKNBKCHM@?$AAJ?$AAa?$AAn?$AA?$AA@ 1005fb88     libucrt:nlsdata.obj
 0002:00001b90       ??_C@_17LMDJEKJN@?$AAF?$AAe?$AAb?$AA?$AA@ 1005fb90     libucrt:nlsdata.obj
 0002:00001b98       ??_C@_17CKNLEDEC@?$AAM?$AAa?$AAr?$AA?$AA@ 1005fb98     libucrt:nlsdata.obj
 0002:00001ba0       ??_C@_17LFPOIHDD@?$AAA?$AAp?$AAr?$AA?$AA@ 1005fba0     libucrt:nlsdata.obj
 0002:00001ba8       ??_C@_17PNNKMEED@?$AAM?$AAa?$AAy?$AA?$AA@ 1005fba8     libucrt:nlsdata.obj
 0002:00001bb0       ??_C@_17KCJGOCPB@?$AAJ?$AAu?$AAn?$AA?$AA@ 1005fbb0     libucrt:nlsdata.obj
 0002:00001bb8       ??_C@_17IJPCKHK@?$AAJ?$AAu?$AAl?$AA?$AA@ 1005fbb8     libucrt:nlsdata.obj
 0002:00001bc0       ??_C@_17ICPELBCN@?$AAA?$AAu?$AAg?$AA?$AA@ 1005fbc0     libucrt:nlsdata.obj
 0002:00001bc8       ??_C@_17HCHCOKMG@?$AAS?$AAe?$AAp?$AA?$AA@ 1005fbc8     libucrt:nlsdata.obj
 0002:00001bd0       ??_C@_17FNLKOI@?$AAO?$AAc?$AAt?$AA?$AA@ 1005fbd0     libucrt:nlsdata.obj
 0002:00001bd8       ??_C@_17BBDMLCIG@?$AAN?$AAo?$AAv?$AA?$AA@ 1005fbd8     libucrt:nlsdata.obj
 0002:00001be0       ??_C@_17EGKACKIF@?$AAD?$AAe?$AAc?$AA?$AA@ 1005fbe0     libucrt:nlsdata.obj
 0002:00001be8       ??_C@_1BA@EFMEIEBA@?$AAJ?$AAa?$AAn?$AAu?$AAa?$AAr?$AAy?$AA?$AA@ 1005fbe8     libucrt:nlsdata.obj
 0002:00001bf8       ??_C@_1BC@JGDDFFAM@?$AAF?$AAe?$AAb?$AAr?$AAu?$AAa?$AAr?$AAy?$AA?$AA@ 1005fbf8     libucrt:nlsdata.obj
 0002:00001c0c       ??_C@_1M@IKEENEDF@?$AAM?$AAa?$AAr?$AAc?$AAh?$AA?$AA@ 1005fc0c     libucrt:nlsdata.obj
 0002:00001c18       ??_C@_1M@GJNLMHFD@?$AAA?$AAp?$AAr?$AAi?$AAl?$AA?$AA@ 1005fc18     libucrt:nlsdata.obj
 0002:00001c24       ??_C@_19EPFLPGAP@?$AAJ?$AAu?$AAn?$AAe?$AA?$AA@ 1005fc24     libucrt:nlsdata.obj
 0002:00001c30       ??_C@_19BIFMLPCD@?$AAJ?$AAu?$AAl?$AAy?$AA?$AA@ 1005fc30     libucrt:nlsdata.obj
 0002:00001c3c       ??_C@_1O@PAHLKOAC@?$AAA?$AAu?$AAg?$AAu?$AAs?$AAt?$AA?$AA@ 1005fc3c     libucrt:nlsdata.obj
 0002:00001c4c       ??_C@_1BE@DKAAMBJL@?$AAS?$AAe?$AAp?$AAt?$AAe?$AAm?$AAb?$AAe?$AAr?$AA?$AA@ 1005fc4c     libucrt:nlsdata.obj
 0002:00001c60       ??_C@_1BA@EPANDLNG@?$AAO?$AAc?$AAt?$AAo?$AAb?$AAe?$AAr?$AA?$AA@ 1005fc60     libucrt:nlsdata.obj
 0002:00001c70       ??_C@_1BC@BGLIFPF@?$AAN?$AAo?$AAv?$AAe?$AAm?$AAb?$AAe?$AAr?$AA?$AA@ 1005fc70     libucrt:nlsdata.obj
 0002:00001c84       ??_C@_1BC@FEMKIFH@?$AAD?$AAe?$AAc?$AAe?$AAm?$AAb?$AAe?$AAr?$AA?$AA@ 1005fc84     libucrt:nlsdata.obj
 0002:00001c98       ??_C@_15ODEHAHHF@?$AAA?$AAM?$AA?$AA@ 1005fc98     libucrt:nlsdata.obj
 0002:00001ca0       ??_C@_15CLMNNGEL@?$AAP?$AAM?$AA?$AA@ 1005fca0     libucrt:nlsdata.obj
 0002:00001ca8       ??_C@_1BC@IEBCMHCM@?$AAM?$AAM?$AA?1?$AAd?$AAd?$AA?1?$AAy?$AAy?$AA?$AA@ 1005fca8     libucrt:nlsdata.obj
 0002:00001cbc       ??_C@_1CI@KNAKOEBC@?$AAd?$AAd?$AAd?$AAd?$AA?0?$AA?5?$AAM?$AAM?$AAM?$AAM?$AA?5?$AAd?$AAd?$AA?0?$AA?5?$AAy?$AAy?$AAy?$AAy?$AA?$AA@ 1005fcbc     libucrt:nlsdata.obj
 0002:00001ce4       ??_C@_1BC@GDGBMEMK@?$AAH?$AAH?$AA?3?$AAm?$AAm?$AA?3?$AAs?$AAs?$AA?$AA@ 1005fce4     libucrt:nlsdata.obj
 0002:00001cf8       ??_C@_1M@BMHNFIME@?$AAe?$AAn?$AA?9?$AAU?$AAS?$AA?$AA@ 1005fcf8     libucrt:nlsdata.obj
 0002:00001d08       ___lc_time_c               1005fd08     libucrt:nlsdata.obj
 0002:00001e70       ___newctype                1005fe70     libucrt:ctype.obj
 0002:00002170       ___newclmap                10060170     libucrt:ctype.obj
 0002:000022f0       ___newcumap                100602f0     libucrt:ctype.obj
 0002:00002470       ??_C@_03OEIAHPBN@INF?$AA@  10060470     libucrt:cvt.obj
 0002:00002474       ??_C@_03OJHLLCGB@inf?$AA@  10060474     libucrt:cvt.obj
 0002:00002478       ??_C@_03LKNCIKJB@NAN?$AA@  10060478     libucrt:cvt.obj
 0002:0000247c       ??_C@_03LHCJEHON@nan?$AA@  1006047c     libucrt:cvt.obj
 0002:00002480       ??_C@_09OFJJIMPC@NAN?$CISNAN?$CJ?$AA@ 10060480     libucrt:cvt.obj
 0002:0000248c       ??_C@_09IPFBKMDL@nan?$CIsnan?$CJ?$AA@ 1006048c     libucrt:cvt.obj
 0002:00002498       ??_C@_08IKHNHAJ@NAN?$CIIND?$CJ?$AA@ 10060498     libucrt:cvt.obj
 0002:000024a4       ??_C@_08OFCDMILK@nan?$CIind?$CJ?$AA@ 100604a4     libucrt:cvt.obj
 0002:000024b0       ??_C@_05KLBDPFGC@e?$CL000?$AA@ 100604b0     libucrt:cvt.obj
 0002:00002508       ??_C@_1EG@CNNIPFIM@?$AAa?$AAp?$AAi?$AA?9?$AAm?$AAs?$AA?9?$AAw?$AAi?$AAn?$AA?9?$AAa?$AAp?$AAp?$AAm?$AAo?$AAd?$AAe?$AAl?$AA?9?$AAr?$AAu?$AAn?$AAt?$AAi?$AAm?$AAe?$AA?9?$AAl?$AA1?$AA?9?$AA1@ 10060508     libucrt:winapi_thunks.obj
 0002:00002550       ??_C@_1EA@JGEFHKEI@?$AAa?$AAp?$AAi?$AA?9?$AAm?$AAs?$AA?9?$AAw?$AAi?$AAn?$AA?9?$AAc?$AAo?$AAr?$AAe?$AA?9?$AAd?$AAa?$AAt?$AAe?$AAt?$AAi?$AAm?$AAe?$AA?9?$AAl?$AA1?$AA?9?$AA1?$AA?9?$AA1?$AA?$AA@ 10060550     libucrt:winapi_thunks.obj
 0002:00002590       ??_C@_1DI@GCIAAENM@?$AAa?$AAp?$AAi?$AA?9?$AAm?$AAs?$AA?9?$AAw?$AAi?$AAn?$AA?9?$AAc?$AAo?$AAr?$AAe?$AA?9?$AAf?$AAi?$AAl?$AAe?$AA?9?$AAl?$AA2?$AA?9?$AA1?$AA?9?$AA1?$AA?$AA@ 10060590     libucrt:winapi_thunks.obj
 0002:000025c8       ??_C@_1EI@MPIAOHOC@?$AAa?$AAp?$AAi?$AA?9?$AAm?$AAs?$AA?9?$AAw?$AAi?$AAn?$AA?9?$AAc?$AAo?$AAr?$AAe?$AA?9?$AAl?$AAo?$AAc?$AAa?$AAl?$AAi?$AAz?$AAa?$AAt?$AAi?$AAo?$AAn?$AA?9?$AAl?$AA1?$AA?9@ 100605c8     libucrt:winapi_thunks.obj
 0002:00002610       ??_C@_1FK@FPHCKFIE@?$AAa?$AAp?$AAi?$AA?9?$AAm?$AAs?$AA?9?$AAw?$AAi?$AAn?$AA?9?$AAc?$AAo?$AAr?$AAe?$AA?9?$AAl?$AAo?$AAc?$AAa?$AAl?$AAi?$AAz?$AAa?$AAt?$AAi?$AAo?$AAn?$AA?9?$AAo?$AAb?$AAs@ 10060610     libucrt:winapi_thunks.obj
 0002:00002670       ??_C@_1EM@DILCGIIO@?$AAa?$AAp?$AAi?$AA?9?$AAm?$AAs?$AA?9?$AAw?$AAi?$AAn?$AA?9?$AAc?$AAo?$AAr?$AAe?$AA?9?$AAp?$AAr?$AAo?$AAc?$AAe?$AAs?$AAs?$AAt?$AAh?$AAr?$AAe?$AAa?$AAd?$AAs?$AA?9?$AAl@ 10060670     libucrt:winapi_thunks.obj
 0002:000026bc       ??_C@_1DM@LNCGDDPN@?$AAa?$AAp?$AAi?$AA?9?$AAm?$AAs?$AA?9?$AAw?$AAi?$AAn?$AA?9?$AAc?$AAo?$AAr?$AAe?$AA?9?$AAs?$AAt?$AAr?$AAi?$AAn?$AAg?$AA?9?$AAl?$AA1?$AA?9?$AA1?$AA?9?$AA0?$AA?$AA@ 100606bc     libucrt:winapi_thunks.obj
 0002:000026f8       ??_C@_1DO@FPAPJEMD@?$AAa?$AAp?$AAi?$AA?9?$AAm?$AAs?$AA?9?$AAw?$AAi?$AAn?$AA?9?$AAc?$AAo?$AAr?$AAe?$AA?9?$AAs?$AAy?$AAs?$AAi?$AAn?$AAf?$AAo?$AA?9?$AAl?$AA1?$AA?9?$AA2?$AA?9?$AA1?$AA?$AA@ 100606f8     libucrt:winapi_thunks.obj
 0002:00002738       ??_C@_1DK@NDHNAHIO@?$AAa?$AAp?$AAi?$AA?9?$AAm?$AAs?$AA?9?$AAw?$AAi?$AAn?$AA?9?$AAc?$AAo?$AAr?$AAe?$AA?9?$AAw?$AAi?$AAn?$AAr?$AAt?$AA?9?$AAl?$AA1?$AA?9?$AA1?$AA?9?$AA0?$AA?$AA@ 10060738     libucrt:winapi_thunks.obj
 0002:00002774       ??_C@_1DM@KGHDGBCM@?$AAa?$AAp?$AAi?$AA?9?$AAm?$AAs?$AA?9?$AAw?$AAi?$AAn?$AA?9?$AAc?$AAo?$AAr?$AAe?$AA?9?$AAx?$AAs?$AAt?$AAa?$AAt?$AAe?$AA?9?$AAl?$AA2?$AA?9?$AA1?$AA?9?$AA0?$AA?$AA@ 10060774     libucrt:winapi_thunks.obj
 0002:000027b0       ??_C@_1EO@IJIOEFOH@?$AAa?$AAp?$AAi?$AA?9?$AAm?$AAs?$AA?9?$AAw?$AAi?$AAn?$AA?9?$AAr?$AAt?$AAc?$AAo?$AAr?$AAe?$AA?9?$AAn?$AAt?$AAu?$AAs?$AAe?$AAr?$AA?9?$AAw?$AAi?$AAn?$AAd?$AAo?$AAw?$AA?9@ 100607b0     libucrt:winapi_thunks.obj
 0002:00002800       ??_C@_1FG@HHGEKANL@?$AAa?$AAp?$AAi?$AA?9?$AAm?$AAs?$AA?9?$AAw?$AAi?$AAn?$AA?9?$AAs?$AAe?$AAc?$AAu?$AAr?$AAi?$AAt?$AAy?$AA?9?$AAs?$AAy?$AAs?$AAt?$AAe?$AAm?$AAf?$AAu?$AAn?$AAc?$AAt?$AAi@ 10060800     libucrt:winapi_thunks.obj
 0002:00002858       ??_C@_1FG@NCKKOLKO@?$AAe?$AAx?$AAt?$AA?9?$AAm?$AAs?$AA?9?$AAw?$AAi?$AAn?$AA?9?$AAk?$AAe?$AAr?$AAn?$AAe?$AAl?$AA3?$AA2?$AA?9?$AAp?$AAa?$AAc?$AAk?$AAa?$AAg?$AAe?$AA?9?$AAc?$AAu?$AAr?$AAr@ 10060858     libucrt:winapi_thunks.obj
 0002:000028b0       ??_C@_1EG@DBIOJECG@?$AAe?$AAx?$AAt?$AA?9?$AAm?$AAs?$AA?9?$AAw?$AAi?$AAn?$AA?9?$AAn?$AAt?$AAu?$AAs?$AAe?$AAr?$AA?9?$AAd?$AAi?$AAa?$AAl?$AAo?$AAg?$AAb?$AAo?$AAx?$AA?9?$AAl?$AA1?$AA?9?$AA1@ 100608b0     libucrt:winapi_thunks.obj
 0002:000028f8       ??_C@_1EO@FIHMJCLF@?$AAe?$AAx?$AAt?$AA?9?$AAm?$AAs?$AA?9?$AAw?$AAi?$AAn?$AA?9?$AAn?$AAt?$AAu?$AAs?$AAe?$AAr?$AA?9?$AAw?$AAi?$AAn?$AAd?$AAo?$AAw?$AAs?$AAt?$AAa?$AAt?$AAi?$AAo?$AAn?$AA?9@ 100608f8     libucrt:winapi_thunks.obj
 0002:00002948       ??_C@_1O@BCCLBEOE@?$AAu?$AAs?$AAe?$AAr?$AA3?$AA2?$AA?$AA@ 10060948     libucrt:winapi_thunks.obj
 0002:00002980       ??_C@_0BE@JOGNEJCI@GetCurrentPackageId?$AA@ 10060980     libucrt:winapi_thunks.obj
 0002:000029a4       ??_C@_0O@KKBNKAPF@LCMapStringEx?$AA@ 100609a4     libucrt:winapi_thunks.obj
 0002:000029bc       ??_C@_0BB@HBDEELFH@LocaleNameToLCID?$AA@ 100609bc     libucrt:winapi_thunks.obj
 0002:000029e0       ??_C@_1M@HPNHIDJI@?$AAj?$AAa?$AA?9?$AAJ?$AAP?$AA?$AA@ 100609e0     libucrt:mbctype.obj
 0002:000029ec       ??_C@_1M@BIBDDEMK@?$AAz?$AAh?$AA?9?$AAC?$AAN?$AA?$AA@ 100609ec     libucrt:mbctype.obj
 0002:000029f8       ??_C@_1M@JLOOOEGK@?$AAk?$AAo?$AA?9?$AAK?$AAR?$AA?$AA@ 100609f8     libucrt:mbctype.obj
 0002:00002a04       ??_C@_1M@CLNBBOPM@?$AAz?$AAh?$AA?9?$AAT?$AAW?$AA?$AA@ 10060a04     libucrt:mbctype.obj
 0002:00002a10       ??_C@_15PJPFLCCM@?$AAu?$AAk?$AA?$AA@ 10060a10     libucrt:get_qualified_locale.obj
 0002:00002a18       ??_C@_01GBGANLPD@0?$AA@    10060a18     libucrt:cfout.obj
 0002:00002a1c       ??_C@_05DNEBIAHO@1?$CDINF?$AA@ 10060a1c     libucrt:cfout.obj
 0002:00002a24       ??_C@_06IMKFLFPG@1?$CDQNAN?$AA@ 10060a24     libucrt:cfout.obj
 0002:00002a2c       ??_C@_06PGGFOGJG@1?$CDSNAN?$AA@ 10060a2c     libucrt:cfout.obj
 0002:00002a34       ??_C@_05PHHOCPM@1?$CDIND?$AA@ 10060a34     libucrt:cfout.obj
 0002:00003160       ??_C@_15EMKDOKLE@?$AAa?$AAr?$AA?$AA@ 10061160     libucrt:lcidtoname_downlevel.obj
 0002:00003168       ??_C@_15KNPADPLH@?$AAb?$AAg?$AA?$AA@ 10061168     libucrt:lcidtoname_downlevel.obj
 0002:00003170       ??_C@_15EDMHLDMO@?$AAc?$AAa?$AA?$AA@ 10061170     libucrt:lcidtoname_downlevel.obj
 0002:00003178       ??_C@_1O@BPEAJADD@?$AAz?$AAh?$AA?9?$AAC?$AAH?$AAS?$AA?$AA@ 10061178     libucrt:lcidtoname_downlevel.obj
 0002:00003188       ??_C@_15LJNHCMNK@?$AAc?$AAs?$AA?$AA@ 10061188     libucrt:lcidtoname_downlevel.obj
 0002:00003190       ??_C@_15FOMCIDHG@?$AAd?$AAa?$AA?$AA@ 10061190     libucrt:lcidtoname_downlevel.obj
 0002:00003198       ??_C@_15NBKABECB@?$AAd?$AAe?$AA?$AA@ 10061198     libucrt:lcidtoname_downlevel.obj
 0002:000031a0       ??_C@_15GHPEIIAO@?$AAe?$AAl?$AA?$AA@ 100611a0     libucrt:lcidtoname_downlevel.obj
 0002:000031a8       ??_C@_15MNPNEAIF@?$AAe?$AAn?$AA?$AA@ 100611a8     libucrt:lcidtoname_downlevel.obj
 0002:000031b0       ??_C@_15GPIOMPMH@?$AAe?$AAs?$AA?$AA@ 100611b0     libucrt:lcidtoname_downlevel.obj
 0002:000031b8       ??_C@_15NGLOAKJC@?$AAf?$AAi?$AA?$AA@ 100611b8     libucrt:lcidtoname_downlevel.obj
 0002:000031c0       ??_C@_15FBKGNKAM@?$AAf?$AAr?$AA?$AA@ 100611c0     libucrt:lcidtoname_downlevel.obj
 0002:000031c8       ??_C@_15KGGCNEFK@?$AAh?$AAe?$AA?$AA@ 100611c8     libucrt:lcidtoname_downlevel.obj
 0002:000031d0       ??_C@_15PGHLIDMF@?$AAh?$AAu?$AA?$AA@ 100611d0     libucrt:lcidtoname_downlevel.obj
 0002:000031d8       ??_C@_15BIEMAPLM@?$AAi?$AAs?$AA?$AA@ 100611d8     libucrt:lcidtoname_downlevel.obj
 0002:000031e0       ??_C@_15IFJLDHAF@?$AAi?$AAt?$AA?$AA@ 100611e0     libucrt:lcidtoname_downlevel.obj
 0002:000031e8       ??_C@_15GEMIOCAG@?$AAj?$AAa?$AA?$AA@ 100611e8     libucrt:lcidtoname_downlevel.obj
 0002:000031f0       ??_C@_15EPELEGJA@?$AAk?$AAo?$AA?$AA@ 100611f0     libucrt:lcidtoname_downlevel.obj
 0002:000031f8       ??_C@_15NDDHIMN@?$AAn?$AAl?$AA?$AA@ 100611f8     libucrt:lcidtoname_downlevel.obj
 0002:00003200       ??_C@_15BPIGNHCD@?$AAn?$AAo?$AA?$AA@ 10061200     libucrt:lcidtoname_downlevel.obj
 0002:00003208       ??_C@_15DEOPBLCG@?$AAp?$AAl?$AA?$AA@ 10061208     libucrt:lcidtoname_downlevel.obj
 0002:00003210       ??_C@_15KBECGEFG@?$AAp?$AAt?$AA?$AA@ 10061210     libucrt:lcidtoname_downlevel.obj
 0002:00003218       ??_C@_15GLJCBFMD@?$AAr?$AAo?$AA?$AA@ 10061218     libucrt:lcidtoname_downlevel.obj
 0002:00003220       ??_C@_15FEDGKCDI@?$AAr?$AAu?$AA?$AA@ 10061220     libucrt:lcidtoname_downlevel.obj
 0002:00003228       ??_C@_15GLKMLLHM@?$AAh?$AAr?$AA?$AA@ 10061228     libucrt:lcidtoname_downlevel.obj
 0002:00003230       ??_C@_15CPKMFBDB@?$AAs?$AAk?$AA?$AA@ 10061230     libucrt:lcidtoname_downlevel.obj
 0002:00003238       ??_C@_15BAAIOGMK@?$AAs?$AAq?$AA?$AA@ 10061238     libucrt:lcidtoname_downlevel.obj
 0002:00003240       ??_C@_15INNPNOHD@?$AAs?$AAv?$AA?$AA@ 10061240     libucrt:lcidtoname_downlevel.obj
 0002:00003248       ??_C@_15CABMMOGH@?$AAt?$AAh?$AA?$AA@ 10061248     libucrt:lcidtoname_downlevel.obj
 0002:00003250       ??_C@_15BPLIHJJM@?$AAt?$AAr?$AA?$AA@ 10061250     libucrt:lcidtoname_downlevel.obj
 0002:00003258       ??_C@_15NEOEKKDJ@?$AAu?$AAr?$AA?$AA@ 10061258     libucrt:lcidtoname_downlevel.obj
 0002:00003260       ??_C@_15NFICGAJK@?$AAi?$AAd?$AA?$AA@ 10061260     libucrt:lcidtoname_downlevel.obj
 0002:00003268       ??_C@_15HPJPHDM@?$AAb?$AAe?$AA?$AA@ 10061268     libucrt:lcidtoname_downlevel.obj
 0002:00003270       ??_C@_15LCHLGJII@?$AAs?$AAl?$AA?$AA@ 10061270     libucrt:lcidtoname_downlevel.obj
 0002:00003278       ??_C@_15PCFJPHHO@?$AAe?$AAt?$AA?$AA@ 10061278     libucrt:lcidtoname_downlevel.obj
 0002:00003280       ??_C@_15HPFPGODN@?$AAl?$AAv?$AA?$AA@ 10061280     libucrt:lcidtoname_downlevel.obj
 0002:00003288       ??_C@_15NFFGKGLG@?$AAl?$AAt?$AA?$AA@ 10061288     libucrt:lcidtoname_downlevel.obj
 0002:00003290       ??_C@_15BDAKCCHN@?$AAf?$AAa?$AA?$AA@ 10061290     libucrt:lcidtoname_downlevel.obj
 0002:00003298       ??_C@_15NFGIAIAJ@?$AAv?$AAi?$AA?$AA@ 10061298     libucrt:lcidtoname_downlevel.obj
 0002:000032a0       ??_C@_15LMKNDMHN@?$AAh?$AAy?$AA?$AA@ 100612a0     libucrt:lcidtoname_downlevel.obj
 0002:000032a8       ??_C@_15IJBHMCFL@?$AAa?$AAz?$AA?$AA@ 100612a8     libucrt:lcidtoname_downlevel.obj
 0002:000032b0       ??_C@_15EKOFJABL@?$AAe?$AAu?$AA?$AA@ 100612b0     libucrt:lcidtoname_downlevel.obj
 0002:000032b8       ??_C@_15BGHADCNK@?$AAm?$AAk?$AA?$AA@ 100612b8     libucrt:lcidtoname_downlevel.obj
 0002:000032c0       ??_C@_15JDNICKHM@?$AAa?$AAf?$AA?$AA@ 100612c0     libucrt:lcidtoname_downlevel.obj
 0002:000032c8       ??_C@_15KPJEDBKD@?$AAk?$AAa?$AA?$AA@ 100612c8     libucrt:lcidtoname_downlevel.obj
 0002:000032d0       ??_C@_15PDNFFFEO@?$AAf?$AAo?$AA?$AA@ 100612d0     libucrt:lcidtoname_downlevel.obj
 0002:000032d8       ??_C@_15OMLEGLOC@?$AAh?$AAi?$AA?$AA@ 100612d8     libucrt:lcidtoname_downlevel.obj
 0002:000032e0       ??_C@_15IDNNENKK@?$AAm?$AAs?$AA?$AA@ 100612e0     libucrt:lcidtoname_downlevel.obj
 0002:000032e8       ??_C@_15MACJNBMH@?$AAk?$AAk?$AA?$AA@ 100612e8     libucrt:lcidtoname_downlevel.obj
 0002:000032f0       ??_C@_15DKDJEOND@?$AAk?$AAy?$AA?$AA@ 100612f0     libucrt:lcidtoname_downlevel.obj
 0002:000032f8       ??_C@_15DFGDLJBG@?$AAs?$AAw?$AA?$AA@ 100612f8     libucrt:lcidtoname_downlevel.obj
 0002:00003300       ??_C@_15BBFAICNG@?$AAu?$AAz?$AA?$AA@ 10061300     libucrt:lcidtoname_downlevel.obj
 0002:00003308       ??_C@_15DKNDCGEA@?$AAt?$AAt?$AA?$AA@ 10061308     libucrt:lcidtoname_downlevel.obj
 0002:00003310       ??_C@_15MGIFMDPL@?$AAp?$AAa?$AA?$AA@ 10061310     libucrt:lcidtoname_downlevel.obj
 0002:00003318       ??_C@_15HCNDBBA@?$AAg?$AAu?$AA?$AA@ 10061318     libucrt:lcidtoname_downlevel.obj
 0002:00003320       ??_C@_15FNBEIBON@?$AAt?$AAa?$AA?$AA@ 10061320     libucrt:lcidtoname_downlevel.obj
 0002:00003328       ??_C@_15NCHGBGLK@?$AAt?$AAe?$AA?$AA@ 10061328     libucrt:lcidtoname_downlevel.obj
 0002:00003330       ??_C@_15PHPHCBPF@?$AAk?$AAn?$AA?$AA@ 10061330     libucrt:lcidtoname_downlevel.obj
 0002:00003338       ??_C@_15DLGBCKMP@?$AAm?$AAr?$AA?$AA@ 10061338     libucrt:lcidtoname_downlevel.obj
 0002:00003340       ??_C@_15EABBLBFF@?$AAs?$AAa?$AA?$AA@ 10061340     libucrt:lcidtoname_downlevel.obj
 0002:00003348       ??_C@_15CBKOMCOI@?$AAm?$AAn?$AA?$AA@ 10061348     libucrt:lcidtoname_downlevel.obj
 0002:00003350       ??_C@_15CKDMCJAF@?$AAg?$AAl?$AA?$AA@ 10061350     libucrt:lcidtoname_downlevel.obj
 0002:00003358       ??_C@_17CNJFBPG@?$AAk?$AAo?$AAk?$AA?$AA@ 10061358     libucrt:lcidtoname_downlevel.obj
 0002:00003360       ??_C@_17FFBJICPL@?$AAs?$AAy?$AAr?$AA?$AA@ 10061360     libucrt:lcidtoname_downlevel.obj
 0002:00003368       ??_C@_17KPNDCPAF@?$AAd?$AAi?$AAv?$AA?$AA@ 10061368     libucrt:lcidtoname_downlevel.obj
 0002:00003370       ??_C@_11LOCGONAA@?$AA?$AA@ 10061370     libucrt:lcidtoname_downlevel.obj
 0002:00003374       ??_C@_1M@OKAHONE@?$AAa?$AAr?$AA?9?$AAS?$AAA?$AA?$AA@ 10061374     libucrt:lcidtoname_downlevel.obj
 0002:00003380       ??_C@_1M@FFFIGIGK@?$AAb?$AAg?$AA?9?$AAB?$AAG?$AA?$AA@ 10061380     libucrt:lcidtoname_downlevel.obj
 0002:0000338c       ??_C@_1M@BJNKEDC@?$AAc?$AAa?$AA?9?$AAE?$AAS?$AA?$AA@ 1006138c     libucrt:lcidtoname_downlevel.obj
 0002:00003398       ??_C@_1M@IJJHFJHA@?$AAc?$AAs?$AA?9?$AAC?$AAZ?$AA?$AA@ 10061398     libucrt:lcidtoname_downlevel.obj
 0002:000033a4       ??_C@_1M@CLPEOBGI@?$AAd?$AAa?$AA?9?$AAD?$AAK?$AA?$AA@ 100613a4     libucrt:lcidtoname_downlevel.obj
 0002:000033b0       ??_C@_1M@MCMADGCB@?$AAd?$AAe?$AA?9?$AAD?$AAE?$AA?$AA@ 100613b0     libucrt:lcidtoname_downlevel.obj
 0002:000033bc       ??_C@_1M@OOCKEMAM@?$AAe?$AAl?$AA?9?$AAG?$AAR?$AA?$AA@ 100613bc     libucrt:lcidtoname_downlevel.obj
 0002:000033c8       ??_C@_1M@DDNJFGID@?$AAf?$AAi?$AA?9?$AAF?$AAI?$AA?$AA@ 100613c8     libucrt:lcidtoname_downlevel.obj
 0002:000033d4       ??_C@_1M@GLIPPMAC@?$AAf?$AAr?$AA?9?$AAF?$AAR?$AA?$AA@ 100613d4     libucrt:lcidtoname_downlevel.obj
 0002:000033e0       ??_C@_1M@GFMCHPE@?$AAh?$AAe?$AA?9?$AAI?$AAL?$AA?$AA@ 100613e0     libucrt:lcidtoname_downlevel.obj
 0002:000033ec       ??_C@_1M@MHLPGNKM@?$AAh?$AAu?$AA?9?$AAH?$AAU?$AA?$AA@ 100613ec     libucrt:lcidtoname_downlevel.obj
 0002:000033f8       ??_C@_1M@LPDDNNPN@?$AAi?$AAs?$AA?9?$AAI?$AAS?$AA?$AA@ 100613f8     libucrt:lcidtoname_downlevel.obj
 0002:00003404       ??_C@_1M@MADIPODN@?$AAi?$AAt?$AA?9?$AAI?$AAT?$AA?$AA@ 10061404     libucrt:lcidtoname_downlevel.obj
 0002:00003410       ??_C@_1M@IHBJJGG@?$AAn?$AAl?$AA?9?$AAN?$AAL?$AA?$AA@ 10061410     libucrt:lcidtoname_downlevel.obj
 0002:0000341c       ??_C@_1M@EANAGDL@?$AAn?$AAb?$AA?9?$AAN?$AAO?$AA?$AA@ 1006141c     libucrt:lcidtoname_downlevel.obj
 0002:00003428       ??_C@_1M@NEIEMEGP@?$AAp?$AAl?$AA?9?$AAP?$AAL?$AA?$AA@ 10061428     libucrt:lcidtoname_downlevel.obj
 0002:00003434       ??_C@_1M@BOCFIGEP@?$AAp?$AAt?$AA?9?$AAB?$AAR?$AA?$AA@ 10061434     libucrt:lcidtoname_downlevel.obj
 0002:00003440       ??_C@_1M@IMPFOPBG@?$AAr?$AAo?$AA?9?$AAR?$AAO?$AA?$AA@ 10061440     libucrt:lcidtoname_downlevel.obj
 0002:0000344c       ??_C@_1M@IDNNEJMM@?$AAr?$AAu?$AA?9?$AAR?$AAU?$AA?$AA@ 1006144c     libucrt:lcidtoname_downlevel.obj
 0002:00003458       ??_C@_1M@LILEEOGM@?$AAh?$AAr?$AA?9?$AAH?$AAR?$AA?$AA@ 10061458     libucrt:lcidtoname_downlevel.obj
 0002:00003464       ??_C@_1M@FKIFEHPB@?$AAs?$AAk?$AA?9?$AAS?$AAK?$AA?$AA@ 10061464     libucrt:lcidtoname_downlevel.obj
 0002:00003470       ??_C@_1M@LJMAMNPJ@?$AAs?$AAq?$AA?9?$AAA?$AAL?$AA?$AA@ 10061470     libucrt:lcidtoname_downlevel.obj
 0002:0000347c       ??_C@_1M@GIAKDKJK@?$AAs?$AAv?$AA?9?$AAS?$AAE?$AA?$AA@ 1006147c     libucrt:lcidtoname_downlevel.obj
 0002:00003488       ??_C@_1M@MKJKIKCL@?$AAt?$AAh?$AA?9?$AAT?$AAH?$AA?$AA@ 10061488     libucrt:lcidtoname_downlevel.obj
 0002:00003494       ??_C@_1M@MFLCCMPB@?$AAt?$AAr?$AA?9?$AAT?$AAR?$AA?$AA@ 10061494     libucrt:lcidtoname_downlevel.obj
 0002:000034a0       ??_C@_1M@OIJHDKJN@?$AAu?$AAr?$AA?9?$AAP?$AAK?$AA?$AA@ 100614a0     libucrt:lcidtoname_downlevel.obj
 0002:000034ac       ??_C@_1M@LHIPCIEK@?$AAi?$AAd?$AA?9?$AAI?$AAD?$AA?$AA@ 100614ac     libucrt:lcidtoname_downlevel.obj
 0002:000034b8       ??_C@_1M@MFMOBGI@?$AAu?$AAk?$AA?9?$AAU?$AAA?$AA?$AA@ 100614b8     libucrt:lcidtoname_downlevel.obj
 0002:000034c4       ??_C@_1M@OBGLJIPL@?$AAb?$AAe?$AA?9?$AAB?$AAY?$AA?$AA@ 100614c4     libucrt:lcidtoname_downlevel.obj
 0002:000034d0       ??_C@_1M@BCFAJEAD@?$AAs?$AAl?$AA?9?$AAS?$AAI?$AA?$AA@ 100614d0     libucrt:lcidtoname_downlevel.obj
 0002:000034dc       ??_C@_1M@FKFFEDDN@?$AAe?$AAt?$AA?9?$AAE?$AAE?$AA?$AA@ 100614dc     libucrt:lcidtoname_downlevel.obj
 0002:000034e8       ??_C@_1M@KGKKAACI@?$AAl?$AAv?$AA?9?$AAL?$AAV?$AA?$AA@ 100614e8     libucrt:lcidtoname_downlevel.obj
 0002:000034f4       ??_C@_1M@IFGBIJO@?$AAl?$AAt?$AA?9?$AAL?$AAT?$AA?$AA@ 100614f4     libucrt:lcidtoname_downlevel.obj
 0002:00003500       ??_C@_1M@FGEAHEDM@?$AAf?$AAa?$AA?9?$AAI?$AAR?$AA?$AA@ 10061500     libucrt:lcidtoname_downlevel.obj
 0002:0000350c       ??_C@_1M@KBMAIBFN@?$AAv?$AAi?$AA?9?$AAV?$AAN?$AA?$AA@ 1006150c     libucrt:lcidtoname_downlevel.obj
 0002:00003518       ??_C@_1M@GPCBKDJK@?$AAh?$AAy?$AA?9?$AAA?$AAM?$AA?$AA@ 10061518     libucrt:lcidtoname_downlevel.obj
 0002:00003524       ??_C@_1BG@BECMDDJB@?$AAa?$AAz?$AA?9?$AAA?$AAZ?$AA?9?$AAL?$AAa?$AAt?$AAn?$AA?$AA@ 10061524     libucrt:lcidtoname_downlevel.obj
 0002:0000353c       ??_C@_1M@MAOFCAEA@?$AAe?$AAu?$AA?9?$AAE?$AAS?$AA?$AA@ 1006153c     libucrt:lcidtoname_downlevel.obj
 0002:00003548       ??_C@_1M@IGHABKPI@?$AAm?$AAk?$AA?9?$AAM?$AAK?$AA?$AA@ 10061548     libucrt:lcidtoname_downlevel.obj
 0002:00003554       ??_C@_1M@IAIGNEJG@?$AAt?$AAn?$AA?9?$AAZ?$AAA?$AA?$AA@ 10061554     libucrt:lcidtoname_downlevel.obj
 0002:00003560       ??_C@_1M@IIJCOJFA@?$AAx?$AAh?$AA?9?$AAZ?$AAA?$AA?$AA@ 10061560     libucrt:lcidtoname_downlevel.obj
 0002:0000356c       ??_C@_1M@LGPJHNJH@?$AAz?$AAu?$AA?9?$AAZ?$AAA?$AA?$AA@ 1006156c     libucrt:lcidtoname_downlevel.obj
 0002:00003578       ??_C@_1M@HOKAOIO@?$AAa?$AAf?$AA?9?$AAZ?$AAA?$AA?$AA@ 10061578     libucrt:lcidtoname_downlevel.obj
 0002:00003584       ??_C@_1M@DPCLHLIE@?$AAk?$AAa?$AA?9?$AAG?$AAE?$AA?$AA@ 10061584     libucrt:lcidtoname_downlevel.obj
 0002:00003590       ??_C@_1M@BLKMHJBI@?$AAf?$AAo?$AA?9?$AAF?$AAO?$AA?$AA@ 10061590     libucrt:lcidtoname_downlevel.obj
 0002:0000359c       ??_C@_1M@LGGJAPPB@?$AAh?$AAi?$AA?9?$AAI?$AAN?$AA?$AA@ 1006159c     libucrt:lcidtoname_downlevel.obj
 0002:000035a8       ??_C@_1M@FIKPIHFE@?$AAm?$AAt?$AA?9?$AAM?$AAT?$AA?$AA@ 100615a8     libucrt:lcidtoname_downlevel.obj
 0002:000035b4       ??_C@_1M@HEGGPBFA@?$AAs?$AAe?$AA?9?$AAN?$AAO?$AA?$AA@ 100615b4     libucrt:lcidtoname_downlevel.obj
 0002:000035c0       ??_C@_1M@EIBJEEPA@?$AAm?$AAs?$AA?9?$AAM?$AAY?$AA?$AA@ 100615c0     libucrt:lcidtoname_downlevel.obj
 0002:000035cc       ??_C@_1M@FHLBGMPP@?$AAk?$AAk?$AA?9?$AAK?$AAZ?$AA?$AA@ 100615cc     libucrt:lcidtoname_downlevel.obj
 0002:000035d8       ??_C@_1M@NGJJLCGI@?$AAk?$AAy?$AA?9?$AAK?$AAG?$AA?$AA@ 100615d8     libucrt:lcidtoname_downlevel.obj
 0002:000035e4       ??_C@_1M@GIENNBFC@?$AAs?$AAw?$AA?9?$AAK?$AAE?$AA?$AA@ 100615e4     libucrt:lcidtoname_downlevel.obj
 0002:000035f0       ??_C@_1BG@NDGMJIMJ@?$AAu?$AAz?$AA?9?$AAU?$AAZ?$AA?9?$AAL?$AAa?$AAt?$AAn?$AA?$AA@ 100615f0     libucrt:lcidtoname_downlevel.obj
 0002:00003608       ??_C@_1M@IDCCIHBC@?$AAt?$AAt?$AA?9?$AAR?$AAU?$AA?$AA@ 10061608     libucrt:lcidtoname_downlevel.obj
 0002:00003614       ??_C@_1M@LOICPMOJ@?$AAb?$AAn?$AA?9?$AAI?$AAN?$AA?$AA@ 10061614     libucrt:lcidtoname_downlevel.obj
 0002:00003620       ??_C@_1M@KPKKNEAH@?$AAp?$AAa?$AA?9?$AAI?$AAN?$AA?$AA@ 10061620     libucrt:lcidtoname_downlevel.obj
 0002:0000362c       ??_C@_1M@PJGPPBOG@?$AAg?$AAu?$AA?9?$AAI?$AAN?$AA?$AA@ 1006162c     libucrt:lcidtoname_downlevel.obj
 0002:00003638       ??_C@_1M@KMKMOPHI@?$AAt?$AAa?$AA?9?$AAI?$AAN?$AA?$AA@ 10061638     libucrt:lcidtoname_downlevel.obj
 0002:00003644       ??_C@_1M@KFEHEPAC@?$AAt?$AAe?$AA?9?$AAI?$AAN?$AA?$AA@ 10061644     libucrt:lcidtoname_downlevel.obj
 0002:00003650       ??_C@_1M@CDCLMGHI@?$AAk?$AAn?$AA?9?$AAI?$AAN?$AA?$AA@ 10061650     libucrt:lcidtoname_downlevel.obj
 0002:0000365c       ??_C@_1M@MIODLDKF@?$AAm?$AAl?$AA?9?$AAI?$AAN?$AA?$AA@ 1006165c     libucrt:lcidtoname_downlevel.obj
 0002:00003668       ??_C@_1M@PBIEACPO@?$AAm?$AAr?$AA?9?$AAI?$AAN?$AA?$AA@ 10061668     libucrt:lcidtoname_downlevel.obj
 0002:00003674       ??_C@_1M@NIDEAGPH@?$AAs?$AAa?$AA?9?$AAI?$AAN?$AA?$AA@ 10061674     libucrt:lcidtoname_downlevel.obj
 0002:00003680       ??_C@_1M@FHIHCBIO@?$AAm?$AAn?$AA?9?$AAM?$AAN?$AA?$AA@ 10061680     libucrt:lcidtoname_downlevel.obj
 0002:0000368c       ??_C@_1M@JAIJPENP@?$AAc?$AAy?$AA?9?$AAG?$AAB?$AA?$AA@ 1006168c     libucrt:lcidtoname_downlevel.obj
 0002:00003698       ??_C@_1M@PHGFBEPN@?$AAg?$AAl?$AA?9?$AAE?$AAS?$AA?$AA@ 10061698     libucrt:lcidtoname_downlevel.obj
 0002:000036a4       ??_C@_1O@KPIPDNCP@?$AAk?$AAo?$AAk?$AA?9?$AAI?$AAN?$AA?$AA@ 100616a4     libucrt:lcidtoname_downlevel.obj
 0002:000036b4       ??_C@_1O@KNHJLDJA@?$AAs?$AAy?$AAr?$AA?9?$AAS?$AAY?$AA?$AA@ 100616b4     libucrt:lcidtoname_downlevel.obj
 0002:000036c4       ??_C@_1O@MKEKBLAH@?$AAd?$AAi?$AAv?$AA?9?$AAM?$AAV?$AA?$AA@ 100616c4     libucrt:lcidtoname_downlevel.obj
 0002:000036d4       ??_C@_1O@OHDCKDDF@?$AAq?$AAu?$AAz?$AA?9?$AAB?$AAO?$AA?$AA@ 100616d4     libucrt:lcidtoname_downlevel.obj
 0002:000036e4       ??_C@_1M@LEPJNLFD@?$AAn?$AAs?$AA?9?$AAZ?$AAA?$AA?$AA@ 100616e4     libucrt:lcidtoname_downlevel.obj
 0002:000036f0       ??_C@_1M@OMLEIIJB@?$AAm?$AAi?$AA?9?$AAN?$AAZ?$AA?$AA@ 100616f0     libucrt:lcidtoname_downlevel.obj
 0002:000036fc       ??_C@_1M@PMPEAILG@?$AAa?$AAr?$AA?9?$AAI?$AAQ?$AA?$AA@ 100616fc     libucrt:lcidtoname_downlevel.obj
 0002:00003708       ??_C@_1M@CNKPNOEE@?$AAd?$AAe?$AA?9?$AAC?$AAH?$AA?$AA@ 10061708     libucrt:lcidtoname_downlevel.obj
 0002:00003714       ??_C@_1M@LKMGMLKO@?$AAe?$AAn?$AA?9?$AAG?$AAB?$AA?$AA@ 10061714     libucrt:lcidtoname_downlevel.obj
 0002:00003720       ??_C@_1M@PGKJFFGL@?$AAe?$AAs?$AA?9?$AAM?$AAX?$AA?$AA@ 10061720     libucrt:lcidtoname_downlevel.obj
 0002:0000372c       ??_C@_1M@DNNANBDC@?$AAf?$AAr?$AA?9?$AAB?$AAE?$AA?$AA@ 1006172c     libucrt:lcidtoname_downlevel.obj
 0002:00003738       ??_C@_1M@HLGMDFHM@?$AAi?$AAt?$AA?9?$AAC?$AAH?$AA?$AA@ 10061738     libucrt:lcidtoname_downlevel.obj
 0002:00003744       ??_C@_1M@CLLBGJH@?$AAn?$AAl?$AA?9?$AAB?$AAE?$AA?$AA@ 10061744     libucrt:lcidtoname_downlevel.obj
 0002:00003750       ??_C@_1M@BODBOGLF@?$AAn?$AAn?$AA?9?$AAN?$AAO?$AA?$AA@ 10061750     libucrt:lcidtoname_downlevel.obj
 0002:0000375c       ??_C@_1M@HFFAHKAD@?$AAp?$AAt?$AA?9?$AAP?$AAT?$AA?$AA@ 1006175c     libucrt:lcidtoname_downlevel.obj
 0002:00003768       ??_C@_1BG@LNOAKHIE@?$AAs?$AAr?$AA?9?$AAS?$AAP?$AA?9?$AAL?$AAa?$AAt?$AAn?$AA?$AA@ 10061768     libucrt:lcidtoname_downlevel.obj
 0002:00003780       ??_C@_1M@HBMHBGAK@?$AAs?$AAv?$AA?9?$AAF?$AAI?$AA?$AA@ 10061780     libucrt:lcidtoname_downlevel.obj
 0002:0000378c       ??_C@_1BG@DGCJGJBE@?$AAa?$AAz?$AA?9?$AAA?$AAZ?$AA?9?$AAC?$AAy?$AAr?$AAl?$AA?$AA@ 1006178c     libucrt:lcidtoname_downlevel.obj
 0002:000037a4       ??_C@_1M@KEJDAAHB@?$AAs?$AAe?$AA?9?$AAS?$AAE?$AA?$AA@ 100617a4     libucrt:lcidtoname_downlevel.obj
 0002:000037b0       ??_C@_1M@HEIBJJAD@?$AAm?$AAs?$AA?9?$AAB?$AAN?$AA?$AA@ 100617b0     libucrt:lcidtoname_downlevel.obj
 0002:000037bc       ??_C@_1BG@PBGJMCEM@?$AAu?$AAz?$AA?9?$AAU?$AAZ?$AA?9?$AAC?$AAy?$AAr?$AAl?$AA?$AA@ 100617bc     libucrt:lcidtoname_downlevel.obj
 0002:000037d4       ??_C@_1O@LAOBCMDF@?$AAq?$AAu?$AAz?$AA?9?$AAE?$AAC?$AA?$AA@ 100617d4     libucrt:lcidtoname_downlevel.obj
 0002:000037e4       ??_C@_1M@POEEMAIO@?$AAa?$AAr?$AA?9?$AAE?$AAG?$AA?$AA@ 100617e4     libucrt:lcidtoname_downlevel.obj
 0002:000037f0       ??_C@_1M@EFAKDEDL@?$AAz?$AAh?$AA?9?$AAH?$AAK?$AA?$AA@ 100617f0     libucrt:lcidtoname_downlevel.obj
 0002:000037fc       ??_C@_1M@HKKIJHGI@?$AAd?$AAe?$AA?9?$AAA?$AAT?$AA?$AA@ 100617fc     libucrt:lcidtoname_downlevel.obj
 0002:00003808       ??_C@_1M@KBFBEHJF@?$AAe?$AAn?$AA?9?$AAA?$AAU?$AA?$AA@ 10061808     libucrt:lcidtoname_downlevel.obj
 0002:00003814       ??_C@_1M@MNPLFAAH@?$AAe?$AAs?$AA?9?$AAE?$AAS?$AA?$AA@ 10061814     libucrt:lcidtoname_downlevel.obj
 0002:00003820       ??_C@_1M@HJOOJFMA@?$AAf?$AAr?$AA?9?$AAC?$AAA?$AA?$AA@ 10061820     libucrt:lcidtoname_downlevel.obj
 0002:0000382c       ??_C@_1BG@JPOFPNAB@?$AAs?$AAr?$AA?9?$AAS?$AAP?$AA?9?$AAC?$AAy?$AAr?$AAl?$AA?$AA@ 1006182c     libucrt:lcidtoname_downlevel.obj
 0002:00003844       ??_C@_1M@LNFOCMOB@?$AAs?$AAe?$AA?9?$AAF?$AAI?$AA?$AA@ 10061844     libucrt:lcidtoname_downlevel.obj
 0002:00003850       ??_C@_1O@MGJBOAMB@?$AAq?$AAu?$AAz?$AA?9?$AAP?$AAE?$AA?$AA@ 10061850     libucrt:lcidtoname_downlevel.obj
 0002:00003860       ??_C@_1M@GJINLBOK@?$AAa?$AAr?$AA?9?$AAL?$AAY?$AA?$AA@ 10061860     libucrt:lcidtoname_downlevel.obj
 0002:0000386c       ??_C@_1M@GGMNHJNL@?$AAz?$AAh?$AA?9?$AAS?$AAG?$AA?$AA@ 1006186c     libucrt:lcidtoname_downlevel.obj
 0002:00003878       ??_C@_1M@HOIKODND@?$AAd?$AAe?$AA?9?$AAL?$AAU?$AA?$AA@ 10061878     libucrt:lcidtoname_downlevel.obj
 0002:00003884       ??_C@_1M@DDOCCGFG@?$AAe?$AAn?$AA?9?$AAC?$AAA?$AA?$AA@ 10061884     libucrt:lcidtoname_downlevel.obj
 0002:00003890       ??_C@_1M@BNOEMJLF@?$AAe?$AAs?$AA?9?$AAG?$AAT?$AA?$AA@ 10061890     libucrt:lcidtoname_downlevel.obj
 0002:0000389c       ??_C@_1M@EOGNKEK@?$AAf?$AAr?$AA?9?$AAC?$AAH?$AA?$AA@ 1006189c     libucrt:lcidtoname_downlevel.obj
 0002:000038a8       ??_C@_1M@FLIDJFHL@?$AAh?$AAr?$AA?9?$AAB?$AAA?$AA?$AA@ 100618a8     libucrt:lcidtoname_downlevel.obj
 0002:000038b4       ??_C@_1O@FMCELNAJ@?$AAs?$AAm?$AAj?$AA?9?$AAN?$AAO?$AA?$AA@ 100618b4     libucrt:lcidtoname_downlevel.obj
 0002:000038c4       ??_C@_1M@JHGLJMGJ@?$AAa?$AAr?$AA?9?$AAD?$AAZ?$AA?$AA@ 100618c4     libucrt:lcidtoname_downlevel.obj
 0002:000038d0       ??_C@_1M@JKKFDCNP@?$AAz?$AAh?$AA?9?$AAM?$AAO?$AA?$AA@ 100618d0     libucrt:lcidtoname_downlevel.obj
 0002:000038dc       ??_C@_1M@GEEFALPE@?$AAd?$AAe?$AA?9?$AAL?$AAI?$AA?$AA@ 100618dc     libucrt:lcidtoname_downlevel.obj
 0002:000038e8       ??_C@_1M@IGEOFBG@?$AAe?$AAn?$AA?9?$AAN?$AAZ?$AA?$AA@ 100618e8     libucrt:lcidtoname_downlevel.obj
 0002:000038f4       ??_C@_1M@KDBONEHP@?$AAe?$AAs?$AA?9?$AAC?$AAR?$AA?$AA@ 100618f4     libucrt:lcidtoname_downlevel.obj
 0002:00003900       ??_C@_1M@FHMDOHNN@?$AAf?$AAr?$AA?9?$AAL?$AAU?$AA?$AA@ 10061900     libucrt:lcidtoname_downlevel.obj
 0002:0000390c       ??_C@_1BG@NFKKMAFG@?$AAb?$AAs?$AA?9?$AAB?$AAA?$AA?9?$AAL?$AAa?$AAt?$AAn?$AA?$AA@ 1006190c     libucrt:lcidtoname_downlevel.obj
 0002:00003924       ??_C@_1O@IMNBEMCI@?$AAs?$AAm?$AAj?$AA?9?$AAS?$AAE?$AA?$AA@ 10061924     libucrt:lcidtoname_downlevel.obj
 0002:00003934       ??_C@_1M@DHHMBNDP@?$AAa?$AAr?$AA?9?$AAM?$AAA?$AA?$AA@ 10061934     libucrt:lcidtoname_downlevel.obj
 0002:00003940       ??_C@_1M@BNBLJCGH@?$AAe?$AAn?$AA?9?$AAI?$AAE?$AA?$AA@ 10061940     libucrt:lcidtoname_downlevel.obj
 0002:0000394c       ??_C@_1M@GEPAFMDL@?$AAe?$AAs?$AA?9?$AAP?$AAA?$AA?$AA@ 1006194c     libucrt:lcidtoname_downlevel.obj
 0002:00003958       ??_C@_1M@OJONDMDL@?$AAf?$AAr?$AA?9?$AAM?$AAC?$AA?$AA@ 10061958     libucrt:lcidtoname_downlevel.obj
 0002:00003964       ??_C@_1BG@OBCNFJB@?$AAs?$AAr?$AA?9?$AAB?$AAA?$AA?9?$AAL?$AAa?$AAt?$AAn?$AA?$AA@ 10061964     libucrt:lcidtoname_downlevel.obj
 0002:0000397c       ??_C@_1O@KEMEEGPO@?$AAs?$AAm?$AAa?$AA?9?$AAN?$AAO?$AA?$AA@ 1006197c     libucrt:lcidtoname_downlevel.obj
 0002:0000398c       ??_C@_1M@ELMGFODK@?$AAa?$AAr?$AA?9?$AAT?$AAN?$AA?$AA@ 1006198c     libucrt:lcidtoname_downlevel.obj
 0002:00003998       ??_C@_1M@BHDLHFAF@?$AAe?$AAn?$AA?9?$AAZ?$AAA?$AA?$AA@ 10061998     libucrt:lcidtoname_downlevel.obj
 0002:000039a4       ??_C@_1M@BMGIGLIF@?$AAe?$AAs?$AA?9?$AAD?$AAO?$AA?$AA@ 100619a4     libucrt:lcidtoname_downlevel.obj
 0002:000039b0       ??_C@_1BG@CMBHIPBE@?$AAs?$AAr?$AA?9?$AAB?$AAA?$AA?9?$AAC?$AAy?$AAr?$AAl?$AA?$AA@ 100619b0     libucrt:lcidtoname_downlevel.obj
 0002:000039c8       ??_C@_1O@HEDBLHNP@?$AAs?$AAm?$AAa?$AA?9?$AAS?$AAE?$AA?$AA@ 100619c8     libucrt:lcidtoname_downlevel.obj
 0002:000039d8       ??_C@_1M@DAGCADIM@?$AAa?$AAr?$AA?9?$AAO?$AAM?$AA?$AA@ 100619d8     libucrt:lcidtoname_downlevel.obj
 0002:000039e4       ??_C@_1M@FODLMICG@?$AAe?$AAn?$AA?9?$AAJ?$AAM?$AA?$AA@ 100619e4     libucrt:lcidtoname_downlevel.obj
 0002:000039f0       ??_C@_1M@DNMLCIHB@?$AAe?$AAs?$AA?9?$AAV?$AAE?$AA?$AA@ 100619f0     libucrt:lcidtoname_downlevel.obj
 0002:000039fc       ??_C@_1O@EOKHMKJK@?$AAs?$AAm?$AAs?$AA?9?$AAF?$AAI?$AA?$AA@ 100619fc     libucrt:lcidtoname_downlevel.obj
 0002:00003a0c       ??_C@_1M@CAFJMKOF@?$AAa?$AAr?$AA?9?$AAY?$AAE?$AA?$AA@ 10061a0c     libucrt:lcidtoname_downlevel.obj
 0002:00003a18       ??_C@_1M@CBFHIJLI@?$AAe?$AAn?$AA?9?$AAC?$AAB?$AA?$AA@ 10061a18     libucrt:lcidtoname_downlevel.obj
 0002:00003a24       ??_C@_1M@BGNFLDN@?$AAe?$AAs?$AA?9?$AAC?$AAO?$AA?$AA@ 10061a24     libucrt:lcidtoname_downlevel.obj
 0002:00003a30       ??_C@_1O@JMPHMAMC@?$AAs?$AAm?$AAn?$AA?9?$AAF?$AAI?$AA?$AA@ 10061a30     libucrt:lcidtoname_downlevel.obj
 0002:00003a40       ??_C@_1M@JLANABKE@?$AAa?$AAr?$AA?9?$AAS?$AAY?$AA?$AA@ 10061a40     libucrt:lcidtoname_downlevel.obj
 0002:00003a4c       ??_C@_1M@HPKGCFGN@?$AAe?$AAn?$AA?9?$AAB?$AAZ?$AA?$AA@ 10061a4c     libucrt:lcidtoname_downlevel.obj
 0002:00003a58       ??_C@_1M@OLJCMLGM@?$AAe?$AAs?$AA?9?$AAP?$AAE?$AA?$AA@ 10061a58     libucrt:lcidtoname_downlevel.obj
 0002:00003a64       ??_C@_1M@MKKGFKLE@?$AAa?$AAr?$AA?9?$AAJ?$AAO?$AA?$AA@ 10061a64     libucrt:lcidtoname_downlevel.obj
 0002:00003a70       ??_C@_1M@EKPGLDNI@?$AAe?$AAn?$AA?9?$AAT?$AAT?$AA?$AA@ 10061a70     libucrt:lcidtoname_downlevel.obj
 0002:00003a7c       ??_C@_1M@OONGHFHE@?$AAe?$AAs?$AA?9?$AAA?$AAR?$AA?$AA@ 10061a7c     libucrt:lcidtoname_downlevel.obj
 0002:00003a88       ??_C@_1M@OOJFGBHE@?$AAa?$AAr?$AA?9?$AAL?$AAB?$AA?$AA@ 10061a88     libucrt:lcidtoname_downlevel.obj
 0002:00003a94       ??_C@_1M@GCEJHNEG@?$AAe?$AAn?$AA?9?$AAZ?$AAW?$AA?$AA@ 10061a94     libucrt:lcidtoname_downlevel.obj
 0002:00003aa0       ??_C@_1M@JNOCAHJI@?$AAe?$AAs?$AA?9?$AAE?$AAC?$AA?$AA@ 10061aa0     libucrt:lcidtoname_downlevel.obj
 0002:00003aac       ??_C@_1M@JEFHPGGB@?$AAa?$AAr?$AA?9?$AAK?$AAW?$AA?$AA@ 10061aac     libucrt:lcidtoname_downlevel.obj
 0002:00003ab8       ??_C@_1M@MLKIBJOJ@?$AAe?$AAn?$AA?9?$AAP?$AAH?$AA?$AA@ 10061ab8     libucrt:lcidtoname_downlevel.obj
 0002:00003ac4       ??_C@_1M@BDNIPEND@?$AAe?$AAs?$AA?9?$AAC?$AAL?$AA?$AA@ 10061ac4     libucrt:lcidtoname_downlevel.obj
 0002:00003ad0       ??_C@_1M@MPNMEKBD@?$AAa?$AAr?$AA?9?$AAA?$AAE?$AA?$AA@ 10061ad0     libucrt:lcidtoname_downlevel.obj
 0002:00003adc       ??_C@_1M@KBJALCPI@?$AAe?$AAs?$AA?9?$AAU?$AAY?$AA?$AA@ 10061adc     libucrt:lcidtoname_downlevel.obj
 0002:00003ae8       ??_C@_1M@LLCCOAGA@?$AAa?$AAr?$AA?9?$AAB?$AAH?$AA?$AA@ 10061ae8     libucrt:lcidtoname_downlevel.obj
 0002:00003af4       ??_C@_1M@PBFNCDEL@?$AAe?$AAs?$AA?9?$AAP?$AAY?$AA?$AA@ 10061af4     libucrt:lcidtoname_downlevel.obj
 0002:00003b00       ??_C@_1M@EDGINPNP@?$AAa?$AAr?$AA?9?$AAQ?$AAA?$AA?$AA@ 10061b00     libucrt:lcidtoname_downlevel.obj
 0002:00003b0c       ??_C@_1M@MKDBIIJI@?$AAe?$AAs?$AA?9?$AAB?$AAO?$AA?$AA@ 10061b0c     libucrt:lcidtoname_downlevel.obj
 0002:00003b18       ??_C@_1M@CPKKEBLD@?$AAe?$AAs?$AA?9?$AAS?$AAV?$AA?$AA@ 10061b18     libucrt:lcidtoname_downlevel.obj
 0002:00003b24       ??_C@_1M@NDBGMMJL@?$AAe?$AAs?$AA?9?$AAH?$AAN?$AA?$AA@ 10061b24     libucrt:lcidtoname_downlevel.obj
 0002:00003b30       ??_C@_1M@JIJIBHDP@?$AAe?$AAs?$AA?9?$AAN?$AAI?$AA?$AA@ 10061b30     libucrt:lcidtoname_downlevel.obj
 0002:00003b3c       ??_C@_1M@CGFMKEEK@?$AAe?$AAs?$AA?9?$AAP?$AAR?$AA?$AA@ 10061b3c     libucrt:lcidtoname_downlevel.obj
 0002:00003b48       ??_C@_1O@ICJHKIIK@?$AAz?$AAh?$AA?9?$AAC?$AAH?$AAT?$AA?$AA@ 10061b48     libucrt:lcidtoname_downlevel.obj
 0002:00003b58       ??_C@_15CLNEJCE@?$AAs?$AAr?$AA?$AA@ 10061b58     libucrt:lcidtoname_downlevel.obj
 0002:00004280       ??_C@_1M@KAHEKEIG@?$AAa?$AAf?$AA?9?$AAz?$AAa?$AA?$AA@ 10062280     libucrt:lcidtoname_downlevel.obj
 0002:0000428c       ??_C@_1M@GIECOABL@?$AAa?$AAr?$AA?9?$AAa?$AAe?$AA?$AA@ 1006228c     libucrt:lcidtoname_downlevel.obj
 0002:00004298       ??_C@_1M@BMLMEKGI@?$AAa?$AAr?$AA?9?$AAb?$AAh?$AA?$AA@ 10062298     libucrt:lcidtoname_downlevel.obj
 0002:000042a4       ??_C@_1M@DAPFDGGB@?$AAa?$AAr?$AA?9?$AAd?$AAz?$AA?$AA@ 100622a4     libucrt:lcidtoname_downlevel.obj
 0002:000042b0       ??_C@_1M@FJNKGKIG@?$AAa?$AAr?$AA?9?$AAe?$AAg?$AA?$AA@ 100622b0     libucrt:lcidtoname_downlevel.obj
 0002:000042bc       ??_C@_1M@FLGKKCLO@?$AAa?$AAr?$AA?9?$AAi?$AAq?$AA?$AA@ 100622bc     libucrt:lcidtoname_downlevel.obj
 0002:000042c8       ??_C@_1M@GNDIPALM@?$AAa?$AAr?$AA?9?$AAj?$AAo?$AA?$AA@ 100622c8     libucrt:lcidtoname_downlevel.obj
 0002:000042d4       ??_C@_1M@DDMJFMGJ@?$AAa?$AAr?$AA?9?$AAk?$AAw?$AA?$AA@ 100622d4     libucrt:lcidtoname_downlevel.obj
 0002:000042e0       ??_C@_1M@EJALMLHM@?$AAa?$AAr?$AA?9?$AAl?$AAb?$AA?$AA@ 100622e0     libucrt:lcidtoname_downlevel.obj
 0002:000042ec       ??_C@_1M@MOBDBLOC@?$AAa?$AAr?$AA?9?$AAl?$AAy?$AA?$AA@ 100622ec     libucrt:lcidtoname_downlevel.obj
 0002:000042f8       ??_C@_1M@JAOCLHDH@?$AAa?$AAr?$AA?9?$AAm?$AAa?$AA?$AA@ 100622f8     libucrt:lcidtoname_downlevel.obj
 0002:00004304       ??_C@_1M@JHPMKJIE@?$AAa?$AAr?$AA?9?$AAo?$AAm?$AA?$AA@ 10062304     libucrt:lcidtoname_downlevel.obj
 0002:00004310       ??_C@_1M@OEPGHFNH@?$AAa?$AAr?$AA?9?$AAq?$AAa?$AA?$AA@ 10062310     libucrt:lcidtoname_downlevel.obj
 0002:0000431c       ??_C@_1M@KJDONENM@?$AAa?$AAr?$AA?9?$AAs?$AAa?$AA?$AA@ 1006231c     libucrt:lcidtoname_downlevel.obj
 0002:00004328       ??_C@_1M@DMJDKLKM@?$AAa?$AAr?$AA?9?$AAs?$AAy?$AA?$AA@ 10062328     libucrt:lcidtoname_downlevel.obj
 0002:00004334       ??_C@_1M@OMFIPEDC@?$AAa?$AAr?$AA?9?$AAt?$AAn?$AA?$AA@ 10062334     libucrt:lcidtoname_downlevel.obj
 0002:00004340       ??_C@_1M@IHMHGAON@?$AAa?$AAr?$AA?9?$AAy?$AAe?$AA?$AA@ 10062340     libucrt:lcidtoname_downlevel.obj
 0002:0000434c       ??_C@_1BG@KDCPGJGB@?$AAa?$AAz?$AA?9?$AAa?$AAz?$AA?9?$AAc?$AAy?$AAr?$AAl?$AA?$AA@ 1006234c     libucrt:lcidtoname_downlevel.obj
 0002:00004364       ??_C@_1BG@IBCKDDOE@?$AAa?$AAz?$AA?9?$AAa?$AAz?$AA?9?$AAl?$AAa?$AAt?$AAn?$AA?$AA@ 10062364     libucrt:lcidtoname_downlevel.obj
 0002:0000437c       ??_C@_1M@EGPFDCPD@?$AAb?$AAe?$AA?9?$AAb?$AAy?$AA?$AA@ 1006237c     libucrt:lcidtoname_downlevel.obj
 0002:00004388       ??_C@_1M@PCMGMCGC@?$AAb?$AAg?$AA?9?$AAb?$AAg?$AA?$AA@ 10062388     libucrt:lcidtoname_downlevel.obj
 0002:00004394       ??_C@_1M@BJBMFGOB@?$AAb?$AAn?$AA?9?$AAi?$AAn?$AA?$AA@ 10062394     libucrt:lcidtoname_downlevel.obj
 0002:000043a0       ??_C@_1BG@EAKMMACD@?$AAb?$AAs?$AA?9?$AAb?$AAa?$AA?9?$AAl?$AAa?$AAt?$AAn?$AA?$AA@ 100623a0     libucrt:lcidtoname_downlevel.obj
 0002:000043b8       ??_C@_1M@KGADAODK@?$AAc?$AAa?$AA?9?$AAe?$AAs?$AA?$AA@ 100623b8     libucrt:lcidtoname_downlevel.obj
 0002:000043c4       ??_C@_1M@COAJPDHI@?$AAc?$AAs?$AA?9?$AAc?$AAz?$AA?$AA@ 100623c4     libucrt:lcidtoname_downlevel.obj
 0002:000043d0       ??_C@_1M@DHBHFONH@?$AAc?$AAy?$AA?9?$AAg?$AAb?$AA?$AA@ 100623d0     libucrt:lcidtoname_downlevel.obj
 0002:000043dc       ??_C@_1M@IMGKELGA@?$AAd?$AAa?$AA?9?$AAd?$AAk?$AA?$AA@ 100623dc     libucrt:lcidtoname_downlevel.obj
 0002:000043e8       ??_C@_1M@NNDGDNGA@?$AAd?$AAe?$AA?9?$AAa?$AAt?$AA?$AA@ 100623e8     libucrt:lcidtoname_downlevel.obj
 0002:000043f4       ??_C@_1M@IKDBHEEM@?$AAd?$AAe?$AA?9?$AAc?$AAh?$AA?$AA@ 100623f4     libucrt:lcidtoname_downlevel.obj
 0002:00004400       ??_C@_1M@GFFOJMCJ@?$AAd?$AAe?$AA?9?$AAd?$AAe?$AA?$AA@ 10062400     libucrt:lcidtoname_downlevel.obj
 0002:0000440c       ??_C@_1M@MDNLKBPM@?$AAd?$AAe?$AA?9?$AAl?$AAi?$AA?$AA@ 1006240c     libucrt:lcidtoname_downlevel.obj
 0002:00004418       ??_C@_1M@NJBEEJNL@?$AAd?$AAe?$AA?9?$AAl?$AAu?$AA?$AA@ 10062418     libucrt:lcidtoname_downlevel.obj
 0002:00004424       ??_C@_1O@GNNELBAP@?$AAd?$AAi?$AAv?$AA?9?$AAm?$AAv?$AA?$AA@ 10062424     libucrt:lcidtoname_downlevel.obj
 0002:00004434       ??_C@_1M@EJLEOGAE@?$AAe?$AAl?$AA?9?$AAg?$AAr?$AA?$AA@ 10062434     libucrt:lcidtoname_downlevel.obj
 0002:00004440       ??_C@_1M@GMPONJN@?$AAe?$AAn?$AA?9?$AAa?$AAu?$AA?$AA@ 10062440     libucrt:lcidtoname_downlevel.obj
 0002:0000444c       ??_C@_1M@NIDIIPGF@?$AAe?$AAn?$AA?9?$AAb?$AAz?$AA?$AA@ 1006244c     libucrt:lcidtoname_downlevel.obj
 0002:00004458       ??_C@_1M@JEHMIMFO@?$AAe?$AAn?$AA?9?$AAc?$AAa?$AA?$AA@ 10062458     libucrt:lcidtoname_downlevel.obj
 0002:00004464       ??_C@_1M@IGMJCDLA@?$AAe?$AAn?$AA?9?$AAc?$AAb?$AA?$AA@ 10062464     libucrt:lcidtoname_downlevel.obj
 0002:00004470       ??_C@_1M@BNFIGBKG@?$AAe?$AAn?$AA?9?$AAg?$AAb?$AA?$AA@ 10062470     libucrt:lcidtoname_downlevel.obj
 0002:0000447c       ??_C@_1M@LKIFDIGP@?$AAe?$AAn?$AA?9?$AAi?$AAe?$AA?$AA@ 1006247c     libucrt:lcidtoname_downlevel.obj
 0002:00004488       ??_C@_1M@PJKFGCCO@?$AAe?$AAn?$AA?9?$AAj?$AAm?$AA?$AA@ 10062488     libucrt:lcidtoname_downlevel.obj
 0002:00004494       ??_C@_1M@KPPKEPBO@?$AAe?$AAn?$AA?9?$AAn?$AAz?$AA?$AA@ 10062494     libucrt:lcidtoname_downlevel.obj
 0002:000044a0       ??_C@_1M@GMDGLDOB@?$AAe?$AAn?$AA?9?$AAp?$AAh?$AA?$AA@ 100624a0     libucrt:lcidtoname_downlevel.obj
 0002:000044ac       ??_C@_1M@ONGIBJNA@?$AAe?$AAn?$AA?9?$AAt?$AAt?$AA?$AA@ 100624ac     libucrt:lcidtoname_downlevel.obj
 0002:000044b8       ??_C@_1M@LLODPCMM@?$AAe?$AAn?$AA?9?$AAu?$AAs?$AA?$AA@ 100624b8     libucrt:lcidtoname_downlevel.obj
 0002:000044c4       ??_C@_1M@LAKFNPAN@?$AAe?$AAn?$AA?9?$AAz?$AAa?$AA?$AA@ 100624c4     libucrt:lcidtoname_downlevel.obj
 0002:000044d0       ??_C@_1M@MFNHNHEO@?$AAe?$AAn?$AA?9?$AAz?$AAw?$AA?$AA@ 100624d0     libucrt:lcidtoname_downlevel.obj
 0002:000044dc       ??_C@_1M@EJEINPHM@?$AAe?$AAs?$AA?9?$AAa?$AAr?$AA?$AA@ 100624dc     libucrt:lcidtoname_downlevel.obj
 0002:000044e8       ??_C@_1M@GNKPCCJA@?$AAe?$AAs?$AA?9?$AAb?$AAo?$AA?$AA@ 100624e8     libucrt:lcidtoname_downlevel.obj
 0002:000044f4       ??_C@_1M@LEEGFONL@?$AAe?$AAs?$AA?9?$AAc?$AAl?$AA?$AA@ 100624f4     libucrt:lcidtoname_downlevel.obj
 0002:00004500       ??_C@_1M@KGPDPBDF@?$AAe?$AAs?$AA?9?$AAc?$AAo?$AA?$AA@ 10062500     libucrt:lcidtoname_downlevel.obj
 0002:0000450c       ??_C@_1M@EIAHOHH@?$AAe?$AAs?$AA?9?$AAc?$AAr?$AA?$AA@ 1006250c     libucrt:lcidtoname_downlevel.obj
 0002:00004518       ??_C@_1M@LLPGMBIN@?$AAe?$AAs?$AA?9?$AAd?$AAo?$AA?$AA@ 10062518     libucrt:lcidtoname_downlevel.obj
 0002:00004524       ??_C@_1M@DKHMKNJA@?$AAe?$AAs?$AA?9?$AAe?$AAc?$AA?$AA@ 10062524     libucrt:lcidtoname_downlevel.obj
 0002:00004530       ??_C@_1M@GKGFPKAP@?$AAe?$AAs?$AA?9?$AAe?$AAs?$AA?$AA@ 10062530     libucrt:lcidtoname_downlevel.obj
 0002:0000453c       ??_C@_1M@LKHKGDLN@?$AAe?$AAs?$AA?9?$AAg?$AAt?$AA?$AA@ 1006253c     libucrt:lcidtoname_downlevel.obj
 0002:00004548       ??_C@_1M@HEIIGGJD@?$AAe?$AAs?$AA?9?$AAh?$AAn?$AA?$AA@ 10062548     libucrt:lcidtoname_downlevel.obj
 0002:00004554       ??_C@_1M@FBDHPPGD@?$AAe?$AAs?$AA?9?$AAm?$AAx?$AA?$AA@ 10062554     libucrt:lcidtoname_downlevel.obj
 0002:00004560       ??_C@_1M@DPAGLNDH@?$AAe?$AAs?$AA?9?$AAn?$AAi?$AA?$AA@ 10062560     libucrt:lcidtoname_downlevel.obj
 0002:0000456c       ??_C@_1M@MDGOPGDD@?$AAe?$AAs?$AA?9?$AAp?$AAa?$AA?$AA@ 1006256c     libucrt:lcidtoname_downlevel.obj
 0002:00004578       ??_C@_1M@EMAMGBGE@?$AAe?$AAs?$AA?9?$AAp?$AAe?$AA?$AA@ 10062578     libucrt:lcidtoname_downlevel.obj
 0002:00004584       ??_C@_1M@IBMCAOEC@?$AAe?$AAs?$AA?9?$AAp?$AAr?$AA?$AA@ 10062584     libucrt:lcidtoname_downlevel.obj
 0002:00004590       ??_C@_1M@FGMDIJED@?$AAe?$AAs?$AA?9?$AAp?$AAy?$AA?$AA@ 10062590     libucrt:lcidtoname_downlevel.obj
 0002:0000459c       ??_C@_1M@IIDEOLLL@?$AAe?$AAs?$AA?9?$AAs?$AAv?$AA?$AA@ 1006259c     libucrt:lcidtoname_downlevel.obj
 0002:000045a8       ??_C@_1M@GAOBIPA@?$AAe?$AAs?$AA?9?$AAu?$AAy?$AA?$AA@ 100625a8     libucrt:lcidtoname_downlevel.obj
 0002:000045b4       ??_C@_1M@JKFFICHJ@?$AAe?$AAs?$AA?9?$AAv?$AAe?$AA?$AA@ 100625b4     libucrt:lcidtoname_downlevel.obj
 0002:000045c0       ??_C@_1M@PNMLOJDF@?$AAe?$AAt?$AA?9?$AAe?$AAe?$AA?$AA@ 100625c0     libucrt:lcidtoname_downlevel.obj
 0002:000045cc       ??_C@_1M@GHHLIKEI@?$AAe?$AAu?$AA?9?$AAe?$AAs?$AA?$AA@ 100625cc     libucrt:lcidtoname_downlevel.obj
 0002:000045d8       ??_C@_1M@PBNONODE@?$AAf?$AAa?$AA?9?$AAi?$AAr?$AA?$AA@ 100625d8     libucrt:lcidtoname_downlevel.obj
 0002:000045e4       ??_C@_1M@JEEHPMIL@?$AAf?$AAi?$AA?9?$AAf?$AAi?$AA?$AA@ 100625e4     libucrt:lcidtoname_downlevel.obj
 0002:000045f0       ??_C@_1M@LMDCNDBA@?$AAf?$AAo?$AA?9?$AAf?$AAo?$AA?$AA@ 100625f0     libucrt:lcidtoname_downlevel.obj
 0002:000045fc       ??_C@_1M@JKEOHLDK@?$AAf?$AAr?$AA?9?$AAb?$AAe?$AA?$AA@ 100625fc     libucrt:lcidtoname_downlevel.obj
 0002:00004608       ??_C@_1M@NOHADPMI@?$AAf?$AAr?$AA?9?$AAc?$AAa?$AA?$AA@ 10062608     libucrt:lcidtoname_downlevel.obj
 0002:00004614       ??_C@_1M@KDHIHAEC@?$AAf?$AAr?$AA?9?$AAc?$AAh?$AA?$AA@ 10062614     libucrt:lcidtoname_downlevel.obj
 0002:00004620       ??_C@_1M@MMBBFGAK@?$AAf?$AAr?$AA?9?$AAf?$AAr?$AA?$AA@ 10062620     libucrt:lcidtoname_downlevel.obj
 0002:0000462c       ??_C@_1M@PAFNENNF@?$AAf?$AAr?$AA?9?$AAl?$AAu?$AA?$AA@ 1006262c     libucrt:lcidtoname_downlevel.obj
 0002:00004638       ??_C@_1M@EOHDJGDD@?$AAf?$AAr?$AA?9?$AAm?$AAc?$AA?$AA@ 10062638     libucrt:lcidtoname_downlevel.obj
 0002:00004644       ??_C@_1M@FAPLLOPF@?$AAg?$AAl?$AA?9?$AAe?$AAs?$AA?$AA@ 10062644     libucrt:lcidtoname_downlevel.obj
 0002:00004650       ??_C@_1M@FOPBFLOO@?$AAg?$AAu?$AA?9?$AAi?$AAn?$AA?$AA@ 10062650     libucrt:lcidtoname_downlevel.obj
 0002:0000465c       ??_C@_1M@KBMCINPM@?$AAh?$AAe?$AA?9?$AAi?$AAl?$AA?$AA@ 1006265c     libucrt:lcidtoname_downlevel.obj
 0002:00004668       ??_C@_1M@BBPHKFPJ@?$AAh?$AAi?$AA?9?$AAi?$AAn?$AA?$AA@ 10062668     libucrt:lcidtoname_downlevel.obj
 0002:00004674       ??_C@_1M@PMBNDPHD@?$AAh?$AAr?$AA?9?$AAb?$AAa?$AA?$AA@ 10062674     libucrt:lcidtoname_downlevel.obj
 0002:00004680       ??_C@_1M@BPCKOEGE@?$AAh?$AAr?$AA?9?$AAh?$AAr?$AA?$AA@ 10062680     libucrt:lcidtoname_downlevel.obj
 0002:0000468c       ??_C@_1M@GACBMHKE@?$AAh?$AAu?$AA?9?$AAh?$AAu?$AA?$AA@ 1006268c     libucrt:lcidtoname_downlevel.obj
 0002:00004698       ??_C@_1M@MILPAJJC@?$AAh?$AAy?$AA?9?$AAa?$AAm?$AA?$AA@ 10062698     libucrt:lcidtoname_downlevel.obj
 0002:000046a4       ??_C@_1M@BABBICEC@?$AAi?$AAd?$AA?9?$AAi?$AAd?$AA?$AA@ 100626a4     libucrt:lcidtoname_downlevel.obj
 0002:000046b0       ??_C@_1M@BIKNHHPF@?$AAi?$AAs?$AA?9?$AAi?$AAs?$AA?$AA@ 100626b0     libucrt:lcidtoname_downlevel.obj
 0002:000046bc       ??_C@_1M@NMPCJPHE@?$AAi?$AAt?$AA?9?$AAc?$AAh?$AA?$AA@ 100626bc     libucrt:lcidtoname_downlevel.obj
 0002:000046c8       ??_C@_1M@GHKGFEDF@?$AAi?$AAt?$AA?9?$AAi?$AAt?$AA?$AA@ 100626c8     libucrt:lcidtoname_downlevel.obj
 0002:000046d4       ??_C@_1M@NIEJCJJA@?$AAj?$AAa?$AA?9?$AAj?$AAp?$AA?$AA@ 100626d4     libucrt:lcidtoname_downlevel.obj
 0002:000046e0       ??_C@_1M@JILFNBIM@?$AAk?$AAa?$AA?9?$AAg?$AAe?$AA?$AA@ 100626e0     libucrt:lcidtoname_downlevel.obj
 0002:000046ec       ??_C@_1M@PACPMGPH@?$AAk?$AAk?$AA?9?$AAk?$AAz?$AA?$AA@ 100626ec     libucrt:lcidtoname_downlevel.obj
 0002:000046f8       ??_C@_1M@IELFGMHA@?$AAk?$AAn?$AA?9?$AAi?$AAn?$AA?$AA@ 100626f8     libucrt:lcidtoname_downlevel.obj
 0002:00004704       ??_C@_1O@IBBJHCH@?$AAk?$AAo?$AAk?$AA?9?$AAi?$AAn?$AA?$AA@ 10062704     libucrt:lcidtoname_downlevel.obj
 0002:00004714       ??_C@_1M@DMHAEOGC@?$AAk?$AAo?$AA?9?$AAk?$AAr?$AA?$AA@ 10062714     libucrt:lcidtoname_downlevel.obj
 0002:00004720       ??_C@_1M@HBAHBIGA@?$AAk?$AAy?$AA?9?$AAk?$AAg?$AA?$AA@ 10062720     libucrt:lcidtoname_downlevel.obj
 0002:0000472c       ??_C@_1M@KPMILCJG@?$AAl?$AAt?$AA?9?$AAl?$AAt?$AA?$AA@ 1006272c     libucrt:lcidtoname_downlevel.obj
 0002:00004738       ??_C@_1M@BDEKKCA@?$AAl?$AAv?$AA?9?$AAl?$AAv?$AA?$AA@ 10062738     libucrt:lcidtoname_downlevel.obj
 0002:00004744       ??_C@_1M@ELCKCCJJ@?$AAm?$AAi?$AA?9?$AAn?$AAz?$AA?$AA@ 10062744     libucrt:lcidtoname_downlevel.obj
 0002:00004750       ??_C@_1M@CBOOLAPA@?$AAm?$AAk?$AA?9?$AAm?$AAk?$AA?$AA@ 10062750     libucrt:lcidtoname_downlevel.obj
 0002:0000475c       ??_C@_1M@GPHNBJKN@?$AAm?$AAl?$AA?9?$AAi?$AAn?$AA?$AA@ 1006275c     libucrt:lcidtoname_downlevel.obj
 0002:00004768       ??_C@_1M@PABJILIG@?$AAm?$AAn?$AA?9?$AAm?$AAn?$AA?$AA@ 10062768     libucrt:lcidtoname_downlevel.obj
 0002:00004774       ??_C@_1M@FGBKKIPG@?$AAm?$AAr?$AA?9?$AAi?$AAn?$AA?$AA@ 10062774     libucrt:lcidtoname_downlevel.obj
 0002:00004780       ??_C@_1M@NDBPDDAL@?$AAm?$AAs?$AA?9?$AAb?$AAn?$AA?$AA@ 10062780     libucrt:lcidtoname_downlevel.obj
 0002:0000478c       ??_C@_1M@OPIHOOPI@?$AAm?$AAs?$AA?9?$AAm?$AAy?$AA?$AA@ 1006278c     libucrt:lcidtoname_downlevel.obj
 0002:00004798       ??_C@_1M@PPDBCNFM@?$AAm?$AAt?$AA?9?$AAm?$AAt?$AA?$AA@ 10062798     libucrt:lcidtoname_downlevel.obj
 0002:000047a4       ??_C@_1M@KDJDKMDD@?$AAn?$AAb?$AA?9?$AAn?$AAo?$AA?$AA@ 100627a4     libucrt:lcidtoname_downlevel.obj
 0002:000047b0       ??_C@_1M@KFCFLMJP@?$AAn?$AAl?$AA?9?$AAb?$AAe?$AA?$AA@ 100627b0     libucrt:lcidtoname_downlevel.obj
 0002:000047bc       ??_C@_1M@KPOPDDGO@?$AAn?$AAl?$AA?9?$AAn?$AAl?$AA?$AA@ 100627bc     libucrt:lcidtoname_downlevel.obj
 0002:000047c8       ??_C@_1M@LJKPEMLN@?$AAn?$AAn?$AA?9?$AAn?$AAo?$AA?$AA@ 100627c8     libucrt:lcidtoname_downlevel.obj
 0002:000047d4       ??_C@_1M@BDGHHBFL@?$AAn?$AAs?$AA?9?$AAz?$AAa?$AA?$AA@ 100627d4     libucrt:lcidtoname_downlevel.obj
 0002:000047e0       ??_C@_1M@IDEHOAP@?$AAp?$AAa?$AA?9?$AAi?$AAn?$AA?$AA@ 100627e0     libucrt:lcidtoname_downlevel.obj
 0002:000047ec       ??_C@_1M@HDBKGOGH@?$AAp?$AAl?$AA?9?$AAp?$AAl?$AA?$AA@ 100627ec     libucrt:lcidtoname_downlevel.obj
 0002:000047f8       ??_C@_1M@LJLLCMEH@?$AAp?$AAt?$AA?9?$AAb?$AAr?$AA?$AA@ 100627f8     libucrt:lcidtoname_downlevel.obj
 0002:00004804       ??_C@_1M@NCMONAAL@?$AAp?$AAt?$AA?9?$AAp?$AAt?$AA?$AA@ 10062804     libucrt:lcidtoname_downlevel.obj
 0002:00004810       ??_C@_1O@EAKMAJDN@?$AAq?$AAu?$AAz?$AA?9?$AAb?$AAo?$AA?$AA@ 10062810     libucrt:lcidtoname_downlevel.obj
 0002:00004820       ??_C@_1O@BHHPIGDN@?$AAq?$AAu?$AAz?$AA?9?$AAe?$AAc?$AA?$AA@ 10062820     libucrt:lcidtoname_downlevel.obj
 0002:00004830       ??_C@_1O@GBAPEKMJ@?$AAq?$AAu?$AAz?$AA?9?$AAp?$AAe?$AA?$AA@ 10062830     libucrt:lcidtoname_downlevel.obj
 0002:00004840       ??_C@_1M@CLGLEFBO@?$AAr?$AAo?$AA?9?$AAr?$AAo?$AA?$AA@ 10062840     libucrt:lcidtoname_downlevel.obj
 0002:0000484c       ??_C@_1M@CEEDODME@?$AAr?$AAu?$AA?9?$AAr?$AAu?$AA?$AA@ 1006284c     libucrt:lcidtoname_downlevel.obj
 0002:00004858       ??_C@_1M@HPKKKMPP@?$AAs?$AAa?$AA?9?$AAi?$AAn?$AA?$AA@ 10062858     libucrt:lcidtoname_downlevel.obj
 0002:00004864       ??_C@_1M@BKMAIGOJ@?$AAs?$AAe?$AA?9?$AAf?$AAi?$AA?$AA@ 10062864     libucrt:lcidtoname_downlevel.obj
 0002:00004870       ??_C@_1M@NDPIFLFI@?$AAs?$AAe?$AA?9?$AAn?$AAo?$AA?$AA@ 10062870     libucrt:lcidtoname_downlevel.obj
 0002:0000487c       ??_C@_1M@DANKKHJ@?$AAs?$AAe?$AA?9?$AAs?$AAe?$AA?$AA@ 1006287c     libucrt:lcidtoname_downlevel.obj
 0002:00004888       ??_C@_1M@PNBLONPJ@?$AAs?$AAk?$AA?9?$AAs?$AAk?$AA?$AA@ 10062888     libucrt:lcidtoname_downlevel.obj
 0002:00004894       ??_C@_1M@LFMODOAL@?$AAs?$AAl?$AA?9?$AAs?$AAi?$AA?$AA@ 10062894     libucrt:lcidtoname_downlevel.obj
 0002:000048a0       ??_C@_1O@DFKOMPG@?$AAs?$AAm?$AAa?$AA?9?$AAn?$AAo?$AA?$AA@ 100628a0     libucrt:lcidtoname_downlevel.obj
 0002:000048b0       ??_C@_1O@NDKPBNNH@?$AAs?$AAm?$AAa?$AA?9?$AAs?$AAe?$AA?$AA@ 100628b0     libucrt:lcidtoname_downlevel.obj
 0002:000048c0       ??_C@_1O@PLLKBHAB@?$AAs?$AAm?$AAj?$AA?9?$AAn?$AAo?$AA?$AA@ 100628c0     libucrt:lcidtoname_downlevel.obj
 0002:000048d0       ??_C@_1O@CLEPOGCA@?$AAs?$AAm?$AAj?$AA?9?$AAs?$AAe?$AA?$AA@ 100628d0     libucrt:lcidtoname_downlevel.obj
 0002:000048e0       ??_C@_1O@DLGJGKMK@?$AAs?$AAm?$AAn?$AA?9?$AAf?$AAi?$AA?$AA@ 100628e0     libucrt:lcidtoname_downlevel.obj
 0002:000048f0       ??_C@_1O@OJDJGAJC@?$AAs?$AAm?$AAs?$AA?9?$AAf?$AAi?$AA?$AA@ 100628f0     libucrt:lcidtoname_downlevel.obj
 0002:00004900       ??_C@_1M@BOFOGHPB@?$AAs?$AAq?$AA?9?$AAa?$AAl?$AA?$AA@ 10062900     libucrt:lcidtoname_downlevel.obj
 0002:0000490c       ??_C@_1BG@LJBBIPGB@?$AAs?$AAr?$AA?9?$AAb?$AAa?$AA?9?$AAc?$AAy?$AAr?$AAl?$AA?$AA@ 1006290c     libucrt:lcidtoname_downlevel.obj
 0002:00004924       ??_C@_1BG@JLBENFOE@?$AAs?$AAr?$AA?9?$AAb?$AAa?$AA?9?$AAl?$AAa?$AAt?$AAn?$AA?$AA@ 10062924     libucrt:lcidtoname_downlevel.obj
 0002:0000493c       ??_C@_1BG@KODPNHE@?$AAs?$AAr?$AA?9?$AAs?$AAp?$AA?9?$AAc?$AAy?$AAr?$AAl?$AA?$AA@ 1006293c     libucrt:lcidtoname_downlevel.obj
 0002:00004954       ??_C@_1BG@CIOGKHPB@?$AAs?$AAr?$AA?9?$AAs?$AAp?$AA?9?$AAl?$AAa?$AAt?$AAn?$AA?$AA@ 10062954     libucrt:lcidtoname_downlevel.obj
 0002:0000496c       ??_C@_1M@NGFJLMAC@?$AAs?$AAv?$AA?9?$AAf?$AAi?$AA?$AA@ 1006296c     libucrt:lcidtoname_downlevel.obj
 0002:00004978       ??_C@_1M@MPJEJAJC@?$AAs?$AAv?$AA?9?$AAs?$AAe?$AA?$AA@ 10062978     libucrt:lcidtoname_downlevel.obj
 0002:00004984       ??_C@_1M@MPNDHLFK@?$AAs?$AAw?$AA?9?$AAk?$AAe?$AA?$AA@ 10062984     libucrt:lcidtoname_downlevel.obj
 0002:00004990       ??_C@_1O@KOHBJJI@?$AAs?$AAy?$AAr?$AA?9?$AAs?$AAy?$AA?$AA@ 10062990     libucrt:lcidtoname_downlevel.obj
 0002:000049a0       ??_C@_1M@LDCEFHA@?$AAt?$AAa?$AA?9?$AAi?$AAn?$AA?$AA@ 100629a0     libucrt:lcidtoname_downlevel.obj
 0002:000049ac       ??_C@_1M@CNJOFAK@?$AAt?$AAe?$AA?9?$AAi?$AAn?$AA?$AA@ 100629ac     libucrt:lcidtoname_downlevel.obj
 0002:000049b8       ??_C@_1M@GNAECACD@?$AAt?$AAh?$AA?9?$AAt?$AAh?$AA?$AA@ 100629b8     libucrt:lcidtoname_downlevel.obj
 0002:000049c4       ??_C@_1M@CHBIHOJO@?$AAt?$AAn?$AA?9?$AAz?$AAa?$AA?$AA@ 100629c4     libucrt:lcidtoname_downlevel.obj
 0002:000049d0       ??_C@_1M@GCCMIGPJ@?$AAt?$AAr?$AA?9?$AAt?$AAr?$AA?$AA@ 100629d0     libucrt:lcidtoname_downlevel.obj
 0002:000049dc       ??_C@_1M@CELMCNBK@?$AAt?$AAt?$AA?9?$AAr?$AAu?$AA?$AA@ 100629dc     libucrt:lcidtoname_downlevel.obj
 0002:000049e8       ??_C@_1M@KLMCELGA@?$AAu?$AAk?$AA?9?$AAu?$AAa?$AA?$AA@ 100629e8     libucrt:lcidtoname_downlevel.obj
 0002:000049f4       ??_C@_1M@EPAJJAJF@?$AAu?$AAr?$AA?9?$AAp?$AAk?$AA?$AA@ 100629f4     libucrt:lcidtoname_downlevel.obj
 0002:00004a00       ??_C@_1BG@GEGPMCDJ@?$AAu?$AAz?$AA?9?$AAu?$AAz?$AA?9?$AAc?$AAy?$AAr?$AAl?$AA?$AA@ 10062a00     libucrt:lcidtoname_downlevel.obj
 0002:00004a18       ??_C@_1BG@EGGKJILM@?$AAu?$AAz?$AA?9?$AAu?$AAz?$AA?9?$AAl?$AAa?$AAt?$AAn?$AA?$AA@ 10062a18     libucrt:lcidtoname_downlevel.obj
 0002:00004a30       ??_C@_1M@GFOCLFF@?$AAv?$AAi?$AA?9?$AAv?$AAn?$AA?$AA@ 10062a30     libucrt:lcidtoname_downlevel.obj
 0002:00004a3c       ??_C@_1M@CPAMEDFI@?$AAx?$AAh?$AA?9?$AAz?$AAa?$AA?$AA@ 10062a3c     libucrt:lcidtoname_downlevel.obj
 0002:00004a48       ??_C@_1O@EBKIFIGN@?$AAz?$AAh?$AA?9?$AAc?$AAh?$AAs?$AA?$AA@ 10062a48     libucrt:lcidtoname_downlevel.obj
 0002:00004a58       ??_C@_1O@NMHPGANE@?$AAz?$AAh?$AA?9?$AAc?$AAh?$AAt?$AA?$AA@ 10062a58     libucrt:lcidtoname_downlevel.obj
 0002:00004a68       ??_C@_1M@LPINJOMC@?$AAz?$AAh?$AA?9?$AAc?$AAn?$AA?$AA@ 10062a68     libucrt:lcidtoname_downlevel.obj
 0002:00004a74       ??_C@_1M@OCJEJODD@?$AAz?$AAh?$AA?9?$AAh?$AAk?$AA?$AA@ 10062a74     libucrt:lcidtoname_downlevel.obj
 0002:00004a80       ??_C@_1M@DNDLJINH@?$AAz?$AAh?$AA?9?$AAm?$AAo?$AA?$AA@ 10062a80     libucrt:lcidtoname_downlevel.obj
 0002:00004a8c       ??_C@_1M@MBFDNDND@?$AAz?$AAh?$AA?9?$AAs?$AAg?$AA?$AA@ 10062a8c     libucrt:lcidtoname_downlevel.obj
 0002:00004a98       ??_C@_1M@IMEPLEPE@?$AAz?$AAh?$AA?9?$AAt?$AAw?$AA?$AA@ 10062a98     libucrt:lcidtoname_downlevel.obj
 0002:00004aa4       ??_C@_1M@BBGHNHJP@?$AAz?$AAu?$AA?9?$AAz?$AAa?$AA?$AA@ 10062aa4     libucrt:lcidtoname_downlevel.obj
 0002:00004b08       ??_C@_1BA@BALFACEM@?$AAC?$AAO?$AAN?$AAO?$AAU?$AAT?$AA$?$AA?$AA@ 10062b08     libucrt:initcon.obj
 0002:00004c20       __infinity                 10062c20     libucrt:87tran.obj
 0002:00004c2a       __minfinity                10062c2a     libucrt:87tran.obj
 0002:00004c34       __logemax                  10062c34     libucrt:87tran.obj
 0002:00004c5a       __OP_EXPjmptab             10062c5a     libucrt:87tran.obj
 0002:00004c80       __indefinite               10062c80     libucrt:87disp.obj
 0002:00004c8a       __piby2                    10062c8a     libucrt:87disp.obj
 0002:00004c94       __piby4                    10062c94     libucrt:87disp.obj
 0002:00004cc8       __DEFAULT_CW_in_mem        10062cc8     libucrt:common.obj
 0002:00004cca       __pi_by_2_to_61            10062cca     libucrt:common.obj
 0002:00004d04       ??_C@_03MGHMBJCF@log?$AA@  10062d04     libucrt:libm_error.obj
 0002:00004d08       ??_C@_05HGHHAHAP@log10?$AA@ 10062d08     libucrt:libm_error.obj
 0002:00004d10       ??_C@_03KHJOGHMM@exp?$AA@  10062d10     libucrt:libm_error.obj
 0002:00004d14       ??_C@_03JGHBODFD@pow?$AA@  10062d14     libucrt:libm_error.obj
 0002:00004d18       ??_C@_04FIHNOPOL@asin?$AA@ 10062d18     libucrt:libm_error.obj
 0002:00004d20       ??_C@_04PDIFKINK@acos?$AA@ 10062d20     libucrt:libm_error.obj
 0002:00004d28       ??_C@_04EIAKFFMI@sqrt?$AA@ 10062d28     libucrt:libm_error.obj
 0002:00004d50       ___acrt_log10_table_t      10062d50     libucrt:log10_tables.obj
 0002:00005160       ___acrt_log10_table_cb     10063160     libucrt:log10_tables.obj
 0002:00005570       ??_C@_04FJHINJAO@tanh?$AA@ 10063570     libucrt:fpexcept.obj
 0002:00005578       ??_C@_04MLLJIGOK@atan?$AA@ 10063578     libucrt:fpexcept.obj
 0002:00005580       ??_C@_05KNGEOGJB@atan2?$AA@ 10063580     libucrt:fpexcept.obj
 0002:00005588       ??_C@_03BLEJJJBH@sin?$AA@  10063588     libucrt:fpexcept.obj
 0002:0000558c       ??_C@_03LALBNOCG@cos?$AA@  1006358c     libucrt:fpexcept.obj
 0002:00005590       ??_C@_03IIINPABG@tan?$AA@  10063590     libucrt:fpexcept.obj
 0002:00005594       ??_C@_04GFPJNGEK@ceil?$AA@ 10063594     libucrt:fpexcept.obj
 0002:0000559c       ??_C@_05PBJFFIGL@floor?$AA@ 1006359c     libucrt:fpexcept.obj
 0002:000055a4       ??_C@_04ODHECPBC@fabs?$AA@ 100635a4     libucrt:fpexcept.obj
 0002:000055ac       ??_C@_04EHEDPDJG@modf?$AA@ 100635ac     libucrt:fpexcept.obj
 0002:000055b4       ??_C@_05CEJMAHNP@ldexp?$AA@ 100635b4     libucrt:fpexcept.obj
 0002:000055bc       ??_C@_05KBKMEMPO@_cabs?$AA@ 100635bc     libucrt:fpexcept.obj
 0002:000055c4       ??_C@_06MEIMCGCF@_hypot?$AA@ 100635c4     libucrt:fpexcept.obj
 0002:000055cc       ??_C@_04KEPJIHGP@fmod?$AA@ 100635cc     libucrt:fpexcept.obj
 0002:000055d4       ??_C@_05GKKHEGJL@frexp?$AA@ 100635d4     libucrt:fpexcept.obj
 0002:000055dc       ??_C@_03MJLDFKDL@_y0?$AA@  100635dc     libucrt:fpexcept.obj
 0002:000055e0       ??_C@_03NAKIGLHK@_y1?$AA@  100635e0     libucrt:fpexcept.obj
 0002:000055e4       ??_C@_03ONILCKOB@_yn?$AA@  100635e4     libucrt:fpexcept.obj
 0002:000055e8       ??_C@_05JGDBENOH@_logb?$AA@ 100635e8     libucrt:fpexcept.obj
 0002:000055f0       ??_C@_0L@KDOEJCKC@_nextafter?$AA@ 100635f0     libucrt:fpexcept.obj
 0002:000056e8       ??_C@_04COOMCNPB@sinh?$AA@ 100636e8     libucrt:fpexcept.obj
 0002:000056f0       ??_C@_04HPJJNFIM@cosh?$AA@ 100636f0     libucrt:fpexcept.obj
 0002:000056f8       __d_inf                    100636f8     libucrt:util.obj
 0002:00005700       __d_max                    10063700     libucrt:util.obj
 0002:00005708       __d_mzero                  10063708     libucrt:util.obj
 0002:00005710       ??_C@_1BK@DBDEIDLH@?$AAK?$AAE?$AAR?$AAN?$AAE?$AAL?$AA3?$AA2?$AA?4?$AAD?$AAL?$AAL?$AA?$AA@ 10063710     DelayImp:delayhlp.obj
 0002:0000572c       ??_C@_0BI@OMNLIJDB@AcquireSRWLockExclusive?$AA@ 1006372c     DelayImp:delayhlp.obj
 0002:00005744       ??_C@_0BI@HMIEPCNJ@ReleaseSRWLockExclusive?$AA@ 10063744     DelayImp:delayhlp.obj
 0002:0000575c       ___pfnDliFailureHook2      1006375c     DelayImp:delayhk1.obj
 0002:00005760       __load_config_used         10063760     LIBCMT:loadcfg.obj
 0002:000057bc       ??_C@_0BD@ONMBCCFJ@?4?4?2src?2bindings?4cc?$AA@ 100637bc     bindings.obj
 0002:000057d0       ??_C@_08OKHKOBIL@bindings?$AA@ 100637d0     bindings.obj
 0002:000057dc       ??_C@_0N@HCFJOAIA@sizeof_short?$AA@ 100637dc     node_lame.obj
 0002:000057ec       ??_C@_0L@HFOINIMP@sizeof_int?$AA@ 100637ec     node_lame.obj
 0002:000057f8       ??_C@_0N@MKKCMIEB@sizeof_float?$AA@ 100637f8     node_lame.obj
 0002:00005808       ??_C@_0O@CCEAPNKO@sizeof_double?$AA@ 10063808     node_lame.obj
 0002:00005818       ??_C@_07MNKINHL@vbr_off?$AA@ 10063818     node_lame.obj
 0002:00005820       ??_C@_06LDDHCDBL@vbr_mt?$AA@ 10063820     node_lame.obj
 0002:00005828       ??_C@_06ECDKJKAL@vbr_rh?$AA@ 10063828     node_lame.obj
 0002:00005830       ??_C@_07MFKCIFMB@vbr_abr?$AA@ 10063830     node_lame.obj
 0002:00005838       ??_C@_08PBAAFEEO@vbr_mtrh?$AA@ 10063838     node_lame.obj
 0002:00005844       ??_C@_0M@LJBNEINO@vbr_default?$AA@ 10063844     node_lame.obj
 0002:00005850       ??_C@_06BHBGJFLL@STEREO?$AA@ 10063850     node_lame.obj
 0002:00005858       ??_C@_0N@MOOFDCCC@JOINT_STEREO?$AA@ 10063858     node_lame.obj
 0002:00005868       ??_C@_04FHCMCPHB@MONO?$AA@ 10063868     node_lame.obj
 0002:00005870       ??_C@_07EIOLJABF@NOT_SET?$AA@ 10063870     node_lame.obj
 0002:00005878       ??_C@_06LGLKACIC@PAD_NO?$AA@ 10063878     node_lame.obj
 0002:00005880       ??_C@_07FOJPGAI@PAD_ALL?$AA@ 10063880     node_lame.obj
 0002:00005888       ??_C@_0L@LKMOMNLO@PAD_ADJUST?$AA@ 10063888     node_lame.obj
 0002:00005894       ??_C@_0BB@LKKMFMHE@LAME_MAXALBUMART?$AA@ 10063894     node_lame.obj
 0002:000058a8       ??_C@_09IEPOEBGN@LAME_OKAY?$AA@ 100638a8     node_lame.obj
 0002:000058b4       ??_C@_0N@LFIDJMCA@LAME_NOERROR?$AA@ 100638b4     node_lame.obj
 0002:000058c4       ??_C@_0BC@EPKINKOL@LAME_GENERICERROR?$AA@ 100638c4     node_lame.obj
 0002:000058d8       ??_C@_0L@BHGGECCF@LAME_NOMEM?$AA@ 100638d8     node_lame.obj
 0002:000058e4       ??_C@_0BA@CHMAOONN@LAME_BADBITRATE?$AA@ 100638e4     node_lame.obj
 0002:000058f4       ??_C@_0BB@BLHOLEMP@LAME_BADSAMPFREQ?$AA@ 100638f4     node_lame.obj
 0002:00005908       ??_C@_0BD@GOOFOBGH@LAME_INTERNALERROR?$AA@ 10063908     node_lame.obj
 0002:0000591c       ??_C@_0BD@PJEEMHKK@PCM_TYPE_SHORT_INT?$AA@ 1006391c     node_lame.obj
 0002:00005930       ??_C@_0P@EMANICNI@PCM_TYPE_FLOAT?$AA@ 10063930     node_lame.obj
 0002:00005940       ??_C@_0BA@DOJBFNKG@PCM_TYPE_DOUBLE?$AA@ 10063940     node_lame.obj
 0002:00005950       ??_C@_0BB@EIOJNDGB@get_lame_version?$AA@ 10063950     node_lame.obj
 0002:00005964       ??_C@_0BE@DBDODLKK@get_lame_os_bitness?$AA@ 10063964     node_lame.obj
 0002:00005978       ??_C@_0L@OPPDDNNG@lame_close?$AA@ 10063978     node_lame.obj
 0002:00005984       ??_C@_0BD@GAOANCEM@lame_encode_buffer?$AA@ 10063984     node_lame.obj
 0002:00005998       ??_C@_0BI@PNBKFHNJ@lame_encode_flush_nogap?$AA@ 10063998     node_lame.obj
 0002:000059b0       ??_C@_0BD@DCKJDHKG@lame_get_id3v1_tag?$AA@ 100639b0     node_lame.obj
 0002:000059c4       ??_C@_0BD@LEDNEFAI@lame_get_id3v2_tag?$AA@ 100639c4     node_lame.obj
 0002:000059d8       ??_C@_0BB@PMHPDBB@lame_init_params?$AA@ 100639d8     node_lame.obj
 0002:000059ec       ??_C@_0BC@GMKFNJB@lame_print_config?$AA@ 100639ec     node_lame.obj
 0002:00005a00       ??_C@_0BF@PGPLHBLM@lame_print_internals?$AA@ 10063a00     node_lame.obj
 0002:00005a18       ??_C@_09LAIAFDML@lame_init?$AA@ 10063a18     node_lame.obj
 0002:00005a24       ??_C@_0O@GNJFBBDG@lame_bitrates?$AA@ 10063a24     node_lame.obj
 0002:00005a34       ??_C@_0BB@NLGFHPLJ@lame_samplerates?$AA@ 10063a34     node_lame.obj
 0002:00005a48       ??_C@_0BF@KFDNKOEP@lame_get_num_samples?$AA@ 10063a48     node_lame.obj
 0002:00005a60       ??_C@_0BF@JHCLNMFG@lame_set_num_samples?$AA@ 10063a60     node_lame.obj
 0002:00005a78       ??_C@_0BH@MCBKNEIL@lame_get_in_samplerate?$AA@ 10063a78     node_lame.obj
 0002:00005a90       ??_C@_0BH@OHBBFPJF@lame_set_in_samplerate?$AA@ 10063a90     node_lame.obj
 0002:00005aa8       ??_C@_0BG@MCJNKMHC@lame_get_num_channels?$AA@ 10063aa8     node_lame.obj
 0002:00005ac0       ??_C@_0BG@KGMEBCMA@lame_set_num_channels?$AA@ 10063ac0     node_lame.obj
 0002:00005ad8       ??_C@_0P@HNOMGEHO@lame_get_scale?$AA@ 10063ad8     node_lame.obj
 0002:00005ae8       ??_C@_0P@FDKJEFOM@lame_set_scale?$AA@ 10063ae8     node_lame.obj
 0002:00005af8       ??_C@_0BE@GCCEDMLK@lame_get_scale_left?$AA@ 10063af8     node_lame.obj
 0002:00005b0c       ??_C@_0BE@KMDKMGJG@lame_set_scale_left?$AA@ 10063b0c     node_lame.obj
 0002:00005b20       ??_C@_0BF@DBCJHBMH@lame_get_scale_right?$AA@ 10063b20     node_lame.obj
 0002:00005b38       ??_C@_0BF@DDPADNO@lame_set_scale_right?$AA@ 10063b38     node_lame.obj
 0002:00005b50       ??_C@_0BI@GMMLIGEM@lame_get_out_samplerate?$AA@ 10063b50     node_lame.obj
 0002:00005b68       ??_C@_0BI@JGOBLAKE@lame_set_out_samplerate?$AA@ 10063b68     node_lame.obj
 0002:00005b80       ??_C@_0BC@HAPPJFJK@lame_get_analysis?$AA@ 10063b80     node_lame.obj
 0002:00005b94       ??_C@_0BC@EEBFJNG@lame_set_analysis?$AA@ 10063b94     node_lame.obj
 0002:00005ba8       ??_C@_0BG@HGJNFCBD@lame_get_bWriteVbrTag?$AA@ 10063ba8     node_lame.obj
 0002:00005bc0       ??_C@_0BG@BCMEOMKB@lame_set_bWriteVbrTag?$AA@ 10063bc0     node_lame.obj
 0002:00005bd8       ??_C@_0BB@FKJLJPNH@lame_get_quality?$AA@ 10063bd8     node_lame.obj
 0002:00005bec       ??_C@_0BB@FFIFEJFE@lame_set_quality?$AA@ 10063bec     node_lame.obj
 0002:00005c00       ??_C@_0O@JECNLFKB@lame_get_mode?$AA@ 10063c00     node_lame.obj
 0002:00005c10       ??_C@_0O@GFABKGNM@lame_set_mode?$AA@ 10063c10     node_lame.obj
 0002:00005c20       ??_C@_0P@PKNDPJLK@lame_get_brate?$AA@ 10063c20     node_lame.obj
 0002:00005c30       ??_C@_0P@NEJGNICI@lame_set_brate?$AA@ 10063c30     node_lame.obj
 0002:00005c40       ??_C@_0BL@CFKPDPDD@lame_get_compression_ratio?$AA@ 10063c40     node_lame.obj
 0002:00005c5c       ??_C@_0BL@NAPJOGHC@lame_set_compression_ratio?$AA@ 10063c5c     node_lame.obj
 0002:00005c78       ??_C@_0BD@HNLLDLNN@lame_get_copyright?$AA@ 10063c78     node_lame.obj
 0002:00005c8c       ??_C@_0BD@CKFIIKK@lame_set_copyright?$AA@ 10063c8c     node_lame.obj
 0002:00005ca0       ??_C@_0BC@MLNLJDCO@lame_get_original?$AA@ 10063ca0     node_lame.obj
 0002:00005cb4       ??_C@_0BC@LPGFFPGC@lame_set_original?$AA@ 10063cb4     node_lame.obj
 0002:00005cc8       ??_C@_0BK@MLPJODGE@lame_get_error_protection?$AA@ 10063cc8     node_lame.obj
 0002:00005ce4       ??_C@_0BK@JCOEPFDD@lame_set_error_protection?$AA@ 10063ce4     node_lame.obj
 0002:00005d00       ??_C@_0BD@JHMJEKMM@lame_get_extension?$AA@ 10063d00     node_lame.obj
 0002:00005d14       ??_C@_0BD@OINHPJLL@lame_set_extension?$AA@ 10063d14     node_lame.obj
 0002:00005d28       ??_C@_0BE@GGDHAMKH@lame_get_strict_ISO?$AA@ 10063d28     node_lame.obj
 0002:00005d3c       ??_C@_0BE@KICJPGIL@lame_set_strict_ISO?$AA@ 10063d3c     node_lame.obj
 0002:00005d50       ??_C@_0BL@NNHELEDC@lame_get_disable_reservoir?$AA@ 10063d50     node_lame.obj
 0002:00005d6c       ??_C@_0BL@CICCGNHD@lame_set_disable_reservoir?$AA@ 10063d6c     node_lame.obj
 0002:00005d88       ??_C@_0BE@BGKALJID@lame_get_quant_comp?$AA@ 10063d88     node_lame.obj
 0002:00005d9c       ??_C@_0BE@NILOEDKP@lame_set_quant_comp?$AA@ 10063d9c     node_lame.obj
 0002:00005db0       ??_C@_0BK@FODJPHPA@lame_get_quant_comp_short?$AA@ 10063db0     node_lame.obj
 0002:00005dcc       ??_C@_0BK@HCEOBKH@lame_set_quant_comp_short?$AA@ 10063dcc     node_lame.obj
 0002:00005de8       ??_C@_0BH@CLCPJKFP@lame_get_exp_nspsytune?$AA@ 10063de8     node_lame.obj
 0002:00005e00       ??_C@_0BH@OCEBBEB@lame_set_exp_nspsytune?$AA@ 10063e00     node_lame.obj
 0002:00005e18       ??_C@_0N@OKPFILDI@lame_get_VBR?$AA@ 10063e18     node_lame.obj
 0002:00005e28       ??_C@_0N@BCAELEOJ@lame_set_VBR?$AA@ 10063e28     node_lame.obj
 0002:00005e38       ??_C@_0P@DMDBCNJM@lame_get_VBR_q?$AA@ 10063e38     node_lame.obj
 0002:00005e48       ??_C@_0P@BCHEAMAO@lame_set_VBR_q?$AA@ 10063e48     node_lame.obj
 0002:00005e58       ??_C@_0BF@PMACLNDI@lame_get_VBR_quality?$AA@ 10063e58     node_lame.obj
 0002:00005e70       ??_C@_0BF@MOBEMPCB@lame_set_VBR_quality?$AA@ 10063e70     node_lame.obj
 0002:00005e88       ??_C@_0BP@DBKKLIFJ@lame_get_VBR_mean_bitrate_kbps?$AA@ 10063e88     node_lame.obj
 0002:00005ea8       ??_C@_0BP@LBGMHFPP@lame_set_VBR_mean_bitrate_kbps?$AA@ 10063ea8     node_lame.obj
 0002:00005ec8       ??_C@_0BO@EJIKHEDA@lame_get_VBR_min_bitrate_kbps?$AA@ 10063ec8     node_lame.obj
 0002:00005ee8       ??_C@_0BO@OKCABJKF@lame_set_VBR_min_bitrate_kbps?$AA@ 10063ee8     node_lame.obj
 0002:00005f08       ??_C@_0BO@FMABKAMC@lame_get_VBR_max_bitrate_kbps?$AA@ 10063f08     node_lame.obj
 0002:00005f28       ??_C@_0BO@PPKLMNFH@lame_set_VBR_max_bitrate_kbps?$AA@ 10063f28     node_lame.obj
 0002:00005f48       ??_C@_0BG@IOCBMFIM@lame_get_VBR_hard_min?$AA@ 10063f48     node_lame.obj
 0002:00005f60       ??_C@_0BG@OKHIHLDO@lame_set_VBR_hard_min?$AA@ 10063f60     node_lame.obj
 0002:00005f78       ??_C@_0BF@PCMIAIJK@lame_get_lowpassfreq?$AA@ 10063f78     node_lame.obj
 0002:00005f90       ??_C@_0BF@MANOHKID@lame_set_lowpassfreq?$AA@ 10063f90     node_lame.obj
 0002:00005fa8       ??_C@_0BG@NMMBIBNO@lame_get_lowpasswidth?$AA@ 10063fa8     node_lame.obj
 0002:00005fc0       ??_C@_0BG@LIJIDPGM@lame_set_lowpasswidth?$AA@ 10063fc0     node_lame.obj
 0002:00005fd8       ??_C@_0BG@GLIJGMA@lame_get_highpassfreq?$AA@ 10063fd8     node_lame.obj
 0002:00005ff0       ??_C@_0BG@GCOBCIHC@lame_set_highpassfreq?$AA@ 10063ff0     node_lame.obj
 0002:00006008       ??_C@_0BH@FHILEJKK@lame_get_highpasswidth?$AA@ 10064008     node_lame.obj
 0002:00006020       ??_C@_0BH@HCIAMCLE@lame_set_highpasswidth?$AA@ 10064020     node_lame.obj
 0002:00006038       ??_C@_0N@NENCCFLL@raw_encoding?$AA@ 10064038     node_mpg123.obj
 0002:00006048       ??_C@_0L@FCPFAJBH@sampleRate?$AA@ 10064048     node_mpg123.obj
 0002:00006054       ??_C@_08PAMBCCJ@channels?$AA@ 10064054     node_mpg123.obj
 0002:00006060       ??_C@_06CPIODIKA@signed?$AA@ 10064060     node_mpg123.obj
 0002:00006068       ??_C@_05KNFBNCOH@float?$AA@ 10064068     node_mpg123.obj
 0002:00006070       ??_C@_04FAHEGBMA@ulaw?$AA@ 10064070     node_mpg123.obj
 0002:00006078       ??_C@_04MFBEFAIC@alaw?$AA@ 10064078     node_mpg123.obj
 0002:00006080       ??_C@_08OMBIDMCD@bitDepth?$AA@ 10064080     node_mpg123.obj
 0002:0000608c       ??_C@_03FJEPELFP@tag?$AA@  1006408c     node_mpg123.obj
 0002:00006090       ??_C@_05PHLGJONK@title?$AA@ 10064090     node_mpg123.obj
 0002:00006098       ??_C@_06FOCAFPGH@artist?$AA@ 10064098     node_mpg123.obj
 0002:000060a0       ??_C@_05MCBBJIDG@album?$AA@ 100640a0     node_mpg123.obj
 0002:000060a8       ??_C@_04JFPLDHAO@year?$AA@ 100640a8     node_mpg123.obj
 0002:000060b0       ??_C@_07GJGNEJFD@comment?$AA@ 100640b0     node_mpg123.obj
 0002:000060b8       ??_C@_0M@DPCBAKHG@trackNumber?$AA@ 100640b8     node_mpg123.obj
 0002:000060c4       ??_C@_05JOBIDKGP@genre?$AA@ 100640c4     node_mpg123.obj
 0002:000060cc       ??_C@_04IOHABJIC@lang?$AA@ 100640cc     node_mpg123.obj
 0002:000060d4       ??_C@_02EGCJHIOB@id?$AA@   100640d4     node_mpg123.obj
 0002:000060d8       ??_C@_0M@PPJNHBMP@description?$AA@ 100640d8     node_mpg123.obj
 0002:000060e4       ??_C@_04CIMGMMMG@text?$AA@ 100640e4     node_mpg123.obj
 0002:000060ec       ??_C@_08PGBJEHDC@comments?$AA@ 100640ec     node_mpg123.obj
 0002:000060f8       ??_C@_05HGDNILHM@texts?$AA@ 100640f8     node_mpg123.obj
 0002:00006100       ??_C@_06NMAPGJFF@extras?$AA@ 10064100     node_mpg123.obj
 0002:00006108       ??_C@_0M@CNMBGGGH@MPG123_DONE?$AA@ 10064108     node_mpg123.obj
 0002:00006114       ??_C@_0BC@LIIFGLEN@MPG123_NEW_FORMAT?$AA@ 10064114     node_mpg123.obj
 0002:00006128       ??_C@_0BB@IAPDIHIA@MPG123_NEED_MORE?$AA@ 10064128     node_mpg123.obj
 0002:0000613c       ??_C@_0L@IPAKFFPL@MPG123_ERR?$AA@ 1006413c     node_mpg123.obj
 0002:00006148       ??_C@_09HMDJBIMK@MPG123_OK?$AA@ 10064148     node_mpg123.obj
 0002:00006154       ??_C@_0BF@IAHLMKJA@MPG123_BAD_OUTFORMAT?$AA@ 10064154     node_mpg123.obj
 0002:0000616c       ??_C@_0BD@CHHBFPLJ@MPG123_BAD_CHANNEL?$AA@ 1006416c     node_mpg123.obj
 0002:00006180       ??_C@_0BA@JKPIEJIG@MPG123_BAD_RATE?$AA@ 10064180     node_mpg123.obj
 0002:00006190       ??_C@_0BG@FLJMFMFG@MPG123_ERR_16TO8TABLE?$AA@ 10064190     node_mpg123.obj
 0002:000061a8       ??_C@_0BB@CODMLJBP@MPG123_BAD_PARAM?$AA@ 100641a8     node_mpg123.obj
 0002:000061bc       ??_C@_0BC@GLAJJLLD@MPG123_BAD_BUFFER?$AA@ 100641bc     node_mpg123.obj
 0002:000061d0       ??_C@_0BC@LBCGNIMO@MPG123_OUT_OF_MEM?$AA@ 100641d0     node_mpg123.obj
 0002:000061e4       ??_C@_0BH@HNHBPFHH@MPG123_NOT_INITIALIZED?$AA@ 100641e4     node_mpg123.obj
 0002:000061fc       ??_C@_0BD@IHDHGAGA@MPG123_BAD_DECODER?$AA@ 100641fc     node_mpg123.obj
 0002:00006210       ??_C@_0BC@MHBFLICD@MPG123_BAD_HANDLE?$AA@ 10064210     node_mpg123.obj
 0002:00006224       ??_C@_0BC@IDANDILO@MPG123_NO_BUFFERS?$AA@ 10064224     node_mpg123.obj
 0002:00006238       ??_C@_0P@GPJANGHP@MPG123_BAD_RVA?$AA@ 10064238     node_mpg123.obj
 0002:00006248       ??_C@_0BC@MGIBBNBH@MPG123_NO_GAPLESS?$AA@ 10064248     node_mpg123.obj
 0002:0000625c       ??_C@_0BA@BIPEEGHK@MPG123_NO_SPACE?$AA@ 1006425c     node_mpg123.obj
 0002:0000626c       ??_C@_0BB@JMHMHIMC@MPG123_BAD_TYPES?$AA@ 1006426c     node_mpg123.obj
 0002:00006280       ??_C@_0BA@PCLCMJOD@MPG123_BAD_BAND?$AA@ 10064280     node_mpg123.obj
 0002:00006290       ??_C@_0BA@LBDPEILJ@MPG123_ERR_NULL?$AA@ 10064290     node_mpg123.obj
 0002:000062a0       ??_C@_0BC@CNFAAFOO@MPG123_ERR_READER?$AA@ 100642a0     node_mpg123.obj
 0002:000062b4       ??_C@_0BI@KHCPNMEP@MPG123_NO_SEEK_FROM_END?$AA@ 100642b4     node_mpg123.obj
 0002:000062cc       ??_C@_0BC@GCLNJDIE@MPG123_BAD_WHENCE?$AA@ 100642cc     node_mpg123.obj
 0002:000062e0       ??_C@_0BC@JBHDBMJN@MPG123_NO_TIMEOUT?$AA@ 100642e0     node_mpg123.obj
 0002:000062f4       ??_C@_0BA@NIBJKCOD@MPG123_BAD_FILE?$AA@ 100642f4     node_mpg123.obj
 0002:00006304       ??_C@_0P@ONKADNLB@MPG123_NO_SEEK?$AA@ 10064304     node_mpg123.obj
 0002:00006314       ??_C@_0BB@FAPOPDJH@MPG123_NO_READER?$AA@ 10064314     node_mpg123.obj
 0002:00006328       ??_C@_0BA@PICNNDID@MPG123_BAD_PARS?$AA@ 10064328     node_mpg123.obj
 0002:00006338       ??_C@_0BF@PMMJJDJL@MPG123_BAD_INDEX_PAR?$AA@ 10064338     node_mpg123.obj
 0002:00006350       ??_C@_0BD@GAGAKKDE@MPG123_OUT_OF_SYNC?$AA@ 10064350     node_mpg123.obj
 0002:00006364       ??_C@_0BD@OMAPKCOP@MPG123_RESYNC_FAIL?$AA@ 10064364     node_mpg123.obj
 0002:00006378       ??_C@_0P@FKNFLEKO@MPG123_NO_8BIT?$AA@ 10064378     node_mpg123.obj
 0002:00006388       ??_C@_0BB@LGJOFDHP@MPG123_BAD_ALIGN?$AA@ 10064388     node_mpg123.obj
 0002:0000639c       ??_C@_0BD@IMGIPMGH@MPG123_NULL_BUFFER?$AA@ 1006439c     node_mpg123.obj
 0002:000063b0       ??_C@_0BC@KIBIDGD@MPG123_NO_RELSEEK?$AA@ 100643b0     node_mpg123.obj
 0002:000063c4       ??_C@_0BE@JGANCKBM@MPG123_NULL_POINTER?$AA@ 100643c4     node_mpg123.obj
 0002:000063d8       ??_C@_0P@NOPKELBK@MPG123_BAD_KEY?$AA@ 100643d8     node_mpg123.obj
 0002:000063e8       ??_C@_0BA@KJFGKOPI@MPG123_NO_INDEX?$AA@ 100643e8     node_mpg123.obj
 0002:000063f8       ??_C@_0BC@HGOBHEHN@MPG123_INDEX_FAIL?$AA@ 100643f8     node_mpg123.obj
 0002:0000640c       ??_C@_0BJ@EDHHKIMO@MPG123_BAD_DECODER_SETUP?$AA@ 1006440c     node_mpg123.obj
 0002:00006428       ??_C@_0BH@EEDIMKJC@MPG123_MISSING_FEATURE?$AA@ 10064428     node_mpg123.obj
 0002:00006440       ??_C@_0BB@JLFFPLAK@MPG123_BAD_VALUE?$AA@ 10064440     node_mpg123.obj
 0002:00006454       ??_C@_0BE@PEOGPPCA@MPG123_LSEEK_FAILED?$AA@ 10064454     node_mpg123.obj
 0002:00006468       ??_C@_0BF@NPEGKLIF@MPG123_BAD_CUSTOM_IO?$AA@ 10064468     node_mpg123.obj
 0002:00006480       ??_C@_0BE@OLDAJHP@MPG123_LFS_OVERFLOW?$AA@ 10064480     node_mpg123.obj
 0002:00006494       ??_C@_0N@NBIDINAI@MPG123_ENC_8?$AA@ 10064494     node_mpg123.obj
 0002:000064a4       ??_C@_0O@IIMHKBEF@MPG123_ENC_16?$AA@ 100644a4     node_mpg123.obj
 0002:000064b4       ??_C@_0O@LILHHNJO@MPG123_ENC_24?$AA@ 100644b4     node_mpg123.obj
 0002:000064c4       ??_C@_0O@OPCPLACP@MPG123_ENC_32?$AA@ 100644c4     node_mpg123.obj
 0002:000064d4       ??_C@_0BC@IGKJFJGG@MPG123_ENC_SIGNED?$AA@ 100644d4     node_mpg123.obj
 0002:000064e8       ??_C@_0BB@NPAGHMD@MPG123_ENC_FLOAT?$AA@ 100644e8     node_mpg123.obj
 0002:000064fc       ??_C@_0BF@LHPCELGD@MPG123_ENC_SIGNED_16?$AA@ 100644fc     node_mpg123.obj
 0002:00006514       ??_C@_0BH@LMENFLJM@MPG123_ENC_UNSIGNED_16?$AA@ 10064514     node_mpg123.obj
 0002:0000652c       ??_C@_0BG@DFKAKIGB@MPG123_ENC_UNSIGNED_8?$AA@ 1006452c     node_mpg123.obj
 0002:00006544       ??_C@_0BE@FBGPHGKO@MPG123_ENC_SIGNED_8?$AA@ 10064544     node_mpg123.obj
 0002:00006558       ??_C@_0BC@IFNOAAAG@MPG123_ENC_ULAW_8?$AA@ 10064558     node_mpg123.obj
 0002:0000656c       ??_C@_0BC@BGEPLINL@MPG123_ENC_ALAW_8?$AA@ 1006456c     node_mpg123.obj
 0002:00006580       ??_C@_0BF@NABKFKAJ@MPG123_ENC_SIGNED_32?$AA@ 10064580     node_mpg123.obj
 0002:00006598       ??_C@_0BH@NLKFEKPG@MPG123_ENC_UNSIGNED_32?$AA@ 10064598     node_mpg123.obj
 0002:000065b0       ??_C@_0BF@IHICJHLI@MPG123_ENC_SIGNED_24?$AA@ 100645b0     node_mpg123.obj
 0002:000065c8       ??_C@_0BH@IMDNIHEH@MPG123_ENC_UNSIGNED_24?$AA@ 100645c8     node_mpg123.obj
 0002:000065e0       ??_C@_0BE@FMNLDHCE@MPG123_ENC_FLOAT_32?$AA@ 100645e0     node_mpg123.obj
 0002:000065f4       ??_C@_0BE@MEKFCEJ@MPG123_ENC_FLOAT_64?$AA@ 100645f4     node_mpg123.obj
 0002:00006608       ??_C@_0P@FMJKANNH@MPG123_ENC_ANY?$AA@ 10064608     node_mpg123.obj
 0002:00006618       ??_C@_0M@NKDOOMJM@MPG123_MONO?$AA@ 10064618     node_mpg123.obj
 0002:00006624       ??_C@_0O@POKLAGAC@MPG123_STEREO?$AA@ 10064624     node_mpg123.obj
 0002:00006634       ??_C@_0M@CPMGLPGK@MPG123_LEFT?$AA@ 10064634     node_mpg123.obj
 0002:00006640       ??_C@_0N@CCDDGFDC@MPG123_RIGHT?$AA@ 10064640     node_mpg123.obj
 0002:00006650       ??_C@_09OFHPAPIL@MPG123_LR?$AA@ 10064650     node_mpg123.obj
 0002:0000665c       ??_C@_0L@KBJBGPGH@MPG123_ID3?$AA@ 1006465c     node_mpg123.obj
 0002:00006668       ??_C@_0P@MMIBCLOC@MPG123_NEW_ID3?$AA@ 10064668     node_mpg123.obj
 0002:00006678       ??_C@_0L@DLMMPKMP@MPG123_ICY?$AA@ 10064678     node_mpg123.obj
 0002:00006684       ??_C@_0P@FGNMLOEK@MPG123_NEW_ICY?$AA@ 10064684     node_mpg123.obj
 0002:00006694       ??_C@_0M@CGLBEFKB@mpg123_init?$AA@ 10064694     node_mpg123.obj
 0002:000066a0       ??_C@_0M@JGDDKAOD@mpg123_exit?$AA@ 100646a0     node_mpg123.obj
 0002:000066ac       ??_C@_0L@HKNOFAJC@mpg123_new?$AA@ 100646ac     node_mpg123.obj
 0002:000066b8       ??_C@_0BA@PODMDNOP@mpg123_decoders?$AA@ 100646b8     node_mpg123.obj
 0002:000066c8       ??_C@_0BH@NAEKGCEB@mpg123_current_decoder?$AA@ 100646c8     node_mpg123.obj
 0002:000066e0       ??_C@_0BK@HLGBELBA@mpg123_supported_decoders?$AA@ 100646e0     node_mpg123.obj
 0002:000066fc       ??_C@_0BB@NMBGDCEC@mpg123_getformat?$AA@ 100646fc     node_mpg123.obj
 0002:00006710       ??_C@_0BD@LJDKHGPO@mpg123_safe_buffer?$AA@ 10064710     node_mpg123.obj
 0002:00006724       ??_C@_0BA@NOAHNJDM@mpg123_outblock?$AA@ 10064724     node_mpg123.obj
 0002:00006734       ??_C@_0BA@DCLKCDEH@mpg123_framepos?$AA@ 10064734     node_mpg123.obj
 0002:00006744       ??_C@_0M@ONBAMLCB@mpg123_tell?$AA@ 10064744     node_mpg123.obj
 0002:00006750       ??_C@_0BB@CMLLEJHN@mpg123_tellframe?$AA@ 10064750     node_mpg123.obj
 0002:00006764       ??_C@_0BD@IBIJLGFA@mpg123_tell_stream?$AA@ 10064764     node_mpg123.obj
 0002:00006778       ??_C@_0BB@LDANKONH@mpg123_open_feed?$AA@ 10064778     node_mpg123.obj
 0002:0000678c       ??_C@_0M@DADILOEE@mpg123_feed?$AA@ 1006478c     node_mpg123.obj
 0002:00006798       ??_C@_0M@KCFBCHNK@mpg123_read?$AA@ 10064798     node_mpg123.obj
 0002:000067a4       ??_C@_0L@HCNOIIBN@mpg123_id3?$AA@ 100647a4     node_mpg123.obj
 0002:000067b0       ??_C@_08HCOMDCCD@iojs?4exe?$AA@ 100647b0     win_delay_load_hook.obj
 0002:000067bc       ??_C@_08JDDNMFDB@node?4exe?$AA@ 100647bc     win_delay_load_hook.obj
 0002:000067d0       ___pfnDliNotifyHook2       100647d0     win_delay_load_hook.obj
 0002:00006a30       _bitrate_table             10064a30     libmp3lame:tables.obj
 0002:00006cf0       _t33l                      10064cf0     libmp3lame:tables.obj
 0002:00006f80       _samplerate_table          10064f80     libmp3lame:tables.obj
 0002:00006fb0       _ht                        10064fb0     libmp3lame:tables.obj
 0002:0000790c       _t1l                       1006590c     libmp3lame:tables.obj
 0002:00007a90       _table56                   10065a90     libmp3lame:tables.obj
 0002:00007e20       _table23                   10065e20     libmp3lame:tables.obj
 0002:00007e50       _largetbl                  10065e50     libmp3lame:tables.obj
 0002:000082d0       _scfsi_band                100662d0     libmp3lame:tables.obj
 0002:000082f0       _t32l                      100662f0     libmp3lame:tables.obj
 0002:00008aa0       _sfBandIndex               10066aa0     libmp3lame:quantize_pvt.obj
 0002:00009210       _nr_of_sfb_block           10067210     libmp3lame:quantize_pvt.obj
 0002:00009330       _pretab                    10067330     libmp3lame:quantize_pvt.obj
 0002:00009bd0       _slen1_tab                 10067bd0     libmp3lame:takehiro.obj
 0002:00009c10       _slen2_tab                 10067c10     libmp3lame:takehiro.obj
 0002:0000b270       _plain_i386                10069270     libmpg123:optimize.obj
 0002:0000da50       _INT123_pnts               1006ba50     libmpg123:tabinit.obj
 0002:0000dac0       ??_C@_0EC@JBHANONC@Warning?3?5highpass?5filter?5disable@ 1006bac0     libmp3lame:lame.obj
 0002:0000db04       ??_C@_0BB@OFOFPBOF@LAME?5?$CFs?5?$CFs?5?$CI?$CFs?$CJ?6?$AA@ 1006bb04     libmp3lame:lame.obj
 0002:0000db18       ??_C@_03LNOFGJMM@MMX?$AA@  1006bb18     libmp3lame:lame.obj
 0002:0000db1c       ??_C@_02KEGNLNML@?0?5?$AA@ 1006bb1c     libmp3lame:lame.obj
 0002:0000db20       ??_C@_06DGHGLNHP@3DNow?$CB?$AA@ 1006bb20     libmp3lame:lame.obj
 0002:0000db28       ??_C@_03OEPHKLAG@SSE?$AA@  1006bb28     libmp3lame:lame.obj
 0002:0000db2c       ??_C@_04EPHAGOP@SSE2?$AA@  1006bb2c     libmp3lame:lame.obj
 0002:0000db34       ??_C@_0BC@PGNIENLH@CPU?5features?3?5?$CFs?6?$AA@ 1006bb34     libmp3lame:lame.obj
 0002:0000db48       ??_C@_0EE@CDLHFDAJ@Autoconverting?5from?5stereo?5to?5mo@ 1006bb48     libmp3lame:lame.obj
 0002:0000db8c       ??_C@_0CK@LIDEKOCP@Resampling?3?5?5input?5?$CFg?5kHz?5?5outpu@ 1006bb8c     libmp3lame:lame.obj
 0002:0000dbb8       ??_C@_0EH@JGACDABP@Using?5polyphase?5highpass?5filter?0@ 1006bbb8     libmp3lame:lame.obj
 0002:0000dc00       ??_C@_0EG@JGKNCGCO@Using?5polyphase?5lowpass?5filter?0?5@ 1006bc00     libmp3lame:lame.obj
 0002:0000dc48       ??_C@_0CD@BBFGAKHA@polyphase?5lowpass?5filter?5disable@ 1006bc48     libmp3lame:lame.obj
 0002:0000dc6c       ??_C@_0DN@IGHDGMCM@Warning?3?5many?5decoders?5cannot?5ha@ 1006bc6c     libmp3lame:lame.obj
 0002:0000dcb0       ??_C@_0FJ@NFPDEENL@Warning?3?5many?5decoders?5cannot?5ha@ 1006bcb0     libmp3lame:lame.obj
 0002:0000dd09       ??_C@_00CNPNBAHC@?$AA@     1006bd09     libmp3lame:lame.obj
 0002:0000dd0c       ??_C@_08OCNCNKPI@?6misc?3?6?6?$AA@ 1006bd0c     libmp3lame:lame.obj
 0002:0000dd18       ??_C@_0O@LNGKOMDN@?7scaling?3?5?$CFg?6?$AA@ 1006bd18     libmp3lame:lame.obj
 0002:0000dd28       ??_C@_0BJ@HAOMIKFL@?7ch0?5?$CIleft?$CJ?5scaling?3?5?$CFg?6?$AA@ 1006bd28     libmp3lame:lame.obj
 0002:0000dd44       ??_C@_0BK@FCKAIEIP@?7ch1?5?$CIright?$CJ?5scaling?3?5?$CFg?6?$AA@ 1006bd44     libmp3lame:lame.obj
 0002:0000dd60       ??_C@_06IKLLLDHL@normal?$AA@ 1006bd60     libmp3lame:lame.obj
 0002:0000dd68       ??_C@_0BE@HFLEPBKE@best?5?$CIoutside?5loop?$CJ?$AA@ 1006bd68     libmp3lame:lame.obj
 0002:0000dd7c       ??_C@_0BJ@HJEFKPHH@best?5?$CIinside?5loop?0?5slow?$CJ?$AA@ 1006bd7c     libmp3lame:lame.obj
 0002:0000dd98       ??_C@_0BF@NJFGMMBM@?7huffman?5search?3?5?$CFs?6?$AA@ 1006bd98     libmp3lame:lame.obj
 0002:0000ddb0       ??_C@_0BE@HPHGPAOL@?7experimental?5Y?$DN?$CFd?6?$AA@ 1006bdb0     libmp3lame:lame.obj
 0002:0000ddc4       ??_C@_05JPBCMFJM@?7?4?4?4?6?$AA@ 1006bdc4     libmp3lame:lame.obj
 0002:0000ddcc       ??_C@_0BC@PJLJKCE@?6stream?5format?3?6?6?$AA@ 1006bdcc     libmp3lame:lame.obj
 0002:0000dde0       ??_C@_03BEHLLJJF@2?45?$AA@ 1006bde0     libmp3lame:lame.obj
 0002:0000dde4       ??_C@_01HIHLOKLC@1?$AA@    1006bde4     libmp3lame:lame.obj
 0002:0000dde8       ??_C@_01FDFGLJHB@2?$AA@    1006bde8     libmp3lame:lame.obj
 0002:0000ddec       ??_C@_01OGPIMHDM@?$DP?$AA@ 1006bdec     libmp3lame:lame.obj
 0002:0000ddf0       ??_C@_0BC@JMNPPKKO@?7MPEG?9?$CFs?5Layer?53?6?$AA@ 1006bdf0     libmp3lame:lame.obj
 0002:0000de04       ??_C@_0N@FPMBPBGF@joint?5stereo?$AA@ 1006be04     libmp3lame:lame.obj
 0002:0000de14       ??_C@_06BDDNELGJ@stereo?$AA@ 1006be14     libmp3lame:lame.obj
 0002:0000de1c       ??_C@_0N@FGCMNKN@dual?5channel?$AA@ 1006be1c     libmp3lame:lame.obj
 0002:0000de2c       ??_C@_04JLBGMNAJ@mono?$AA@ 1006be2c     libmp3lame:lame.obj
 0002:0000de34       ??_C@_0BA@BFBLDBCI@not?5set?5?$CIerror?$CJ?$AA@ 1006be34     libmp3lame:lame.obj
 0002:0000de44       ??_C@_0BA@KIFFCGDE@unknown?5?$CIerror?$CJ?$AA@ 1006be44     libmp3lame:lame.obj
 0002:0000de54       ??_C@_0BC@BKCCBDAM@?7?$CFd?5channel?5?9?5?$CFs?6?$AA@ 1006be54     libmp3lame:lame.obj
 0002:0000de68       ??_C@_03MCADLMAF@off?$AA@  1006be68     libmp3lame:lame.obj
 0002:0000de6c       ??_C@_03NFKEKGGK@all?$AA@  1006be6c     libmp3lame:lame.obj
 0002:0000de70       ??_C@_0O@JFDEPJHG@?7padding?3?5?$CFs?6?$AA@ 1006be70     libmp3lame:lame.obj
 0002:0000de80       ??_C@_09KFMJHHJJ@?$CIdefault?$CJ?$AA@ 1006be80     libmp3lame:lame.obj
 0002:0000de8c       ??_C@_0O@PKLEMINE@?$CIfree?5format?$CJ?$AA@ 1006be8c     libmp3lame:lame.obj
 0002:0000de9c       ??_C@_0BM@BAGDDFON@?7constant?5bitrate?5?9?5CBR?5?$CFs?6?$AA@ 1006be9c     libmp3lame:lame.obj
 0002:0000deb8       ??_C@_0BM@FALEJJDH@?7variable?5bitrate?5?9?5ABR?5?$CFs?6?$AA@ 1006beb8     libmp3lame:lame.obj
 0002:0000ded4       ??_C@_0BP@PFMABHIA@?7variable?5bitrate?5?9?5VBR?5rh?5?$CFs?6?$AA@ 1006bed4     libmp3lame:lame.obj
 0002:0000def4       ??_C@_0BP@BAECDJEH@?7variable?5bitrate?5?9?5VBR?5mt?5?$CFs?6?$AA@ 1006bef4     libmp3lame:lame.obj
 0002:0000df14       ??_C@_0CB@MMALJEFE@?7variable?5bitrate?5?9?5VBR?5mtrh?5?$CFs?6@ 1006bf14     libmp3lame:lame.obj
 0002:0000df38       ??_C@_0BN@OPDANJLJ@?7?5?$DP?$DP?5oops?0?5some?5new?5one?5?$DP?$DP?5?6?$AA@ 1006bf38     libmp3lame:lame.obj
 0002:0000df58       ??_C@_0BB@POGGEMGO@?7using?5LAME?5Tag?6?$AA@ 1006bf58     libmp3lame:lame.obj
 0002:0000df6c       ??_C@_0BD@CCJLGNJG@?6psychoacoustic?3?6?6?$AA@ 1006bf6c     libmp3lame:lame.obj
 0002:0000df80       ??_C@_07BHLLLGNC@allowed?$AA@ 1006bf80     libmp3lame:lame.obj
 0002:0000df88       ??_C@_0BA@HNKNFHAB@channel?5coupled?$AA@ 1006bf88     libmp3lame:lame.obj
 0002:0000df98       ??_C@_09LCDCLNPL@dispensed?$AA@ 1006bf98     libmp3lame:lame.obj
 0002:0000dfa4       ??_C@_06JGFLKIPL@forced?$AA@ 1006bfa4     libmp3lame:lame.obj
 0002:0000dfac       ??_C@_0BJ@CPDFMACD@?7using?5short?5blocks?3?5?$CFs?6?$AA@ 1006bfac     libmp3lame:lame.obj
 0002:0000dfc8       ??_C@_0BE@HMLAMLHB@?7subblock?5gain?3?5?$CFd?6?$AA@ 1006bfc8     libmp3lame:lame.obj
 0002:0000dfdc       ??_C@_0BI@PKGHKFLP@?7adjust?5masking?3?5?$CFg?5dB?6?$AA@ 1006bfdc     libmp3lame:lame.obj
 0002:0000dff4       ??_C@_0BO@JJOCCODN@?7adjust?5masking?5short?3?5?$CFg?5dB?6?$AA@ 1006bff4     libmp3lame:lame.obj
 0002:0000e014       ??_C@_0BO@MCFMHOJB@?7quantization?5comparison?3?5?$CFd?6?$AA@ 1006c014     libmp3lame:lame.obj
 0002:0000e034       ??_C@_0CB@FCDDLJCJ@?7?5?$FO?5comparison?5short?5blocks?3?5?$CFd?6@ 1006c034     libmp3lame:lame.obj
 0002:0000e058       ??_C@_0BE@MNMNNAOI@?7noise?5shaping?3?5?$CFd?6?$AA@ 1006c058     libmp3lame:lame.obj
 0002:0000e06c       ??_C@_0BH@CGJLJHGN@?7?5?$FO?5amplification?3?5?$CFd?6?$AA@ 1006c06c     libmp3lame:lame.obj
 0002:0000e084       ??_C@_0BC@KNPJJGMC@?7?5?$FO?5stopping?3?5?$CFd?6?$AA@ 1006c084     libmp3lame:lame.obj
 0002:0000e098       ??_C@_05IFHLPLPC@using?$AA@ 1006c098     libmp3lame:lame.obj
 0002:0000e0a0       ??_C@_0CC@ENIHMMMK@the?5only?5masking?5for?5short?5block@ 1006c0a0     libmp3lame:lame.obj
 0002:0000e0c4       ??_C@_0BB@MGAAIGDO@the?5only?5masking?$AA@ 1006c0c4     libmp3lame:lame.obj
 0002:0000e0d8       ??_C@_08JMCCDFNL@not?5used?$AA@ 1006c0d8     libmp3lame:lame.obj
 0002:0000e0e4       ??_C@_09NAJFAHGF@?7ATH?3?5?$CFs?6?$AA@ 1006c0e4     libmp3lame:lame.obj
 0002:0000e0f0       ??_C@_0O@PADLEJED@?7?5?$FO?5type?3?5?$CFd?6?$AA@ 1006c0f0     libmp3lame:lame.obj
 0002:0000e100       ??_C@_0BD@KNEOFMFP@?5?$CIonly?5for?5type?54?$CJ?$AA@ 1006c100     libmp3lame:lame.obj
 0002:0000e114       ??_C@_0BB@CKOHFPDE@?7?5?$FO?5shape?3?5?$CFg?$CFs?6?$AA@ 1006c114     libmp3lame:lame.obj
 0002:0000e128       ??_C@_0BO@NIJDNPLD@?7?5?$FO?5level?5adjustement?3?5?$CFg?5dB?6?$AA@ 1006c128     libmp3lame:lame.obj
 0002:0000e148       ??_C@_0BF@ONPPHJJO@?7?5?$FO?5adjust?5type?3?5?$CFd?6?$AA@ 1006c148     libmp3lame:lame.obj
 0002:0000e160       ??_C@_0CC@OLDHKLNJ@?7?5?$FO?5adjust?5sensitivity?5power?3?5?$CFf@ 1006c160     libmp3lame:lame.obj
 0002:0000e184       ??_C@_0CM@KKMCAGDD@?7experimental?5psy?5tunings?5by?5Nao@ 1006c184     libmp3lame:lame.obj
 0002:0000e1b0       ??_C@_0EG@KOKLKHDL@?7?5?5?5adjust?5masking?5bass?$DN?$CFg?5dB?0?5a@ 1006c1b0     libmp3lame:lame.obj
 0002:0000e1f8       ??_C@_03ICICOMAL@yes?$AA@  1006c1f8     libmp3lame:lame.obj
 0002:0000e1fc       ??_C@_02KAJCLHKP@no?$AA@   1006c1fc     libmp3lame:lame.obj
 0002:0000e200       ??_C@_0CE@HPIHCFGL@?7using?5temporal?5masking?5effect?3?5@ 1006c200     libmp3lame:lame.obj
 0002:0000e224       ??_C@_0CB@KFKIJBOH@?7interchannel?5masking?5ratio?3?5?$CFg?6@ 1006c224     libmp3lame:lame.obj
 0002:0000e248       ??_C@_01EEMJAFIK@?6?$AA@   1006c248     libmp3lame:lame.obj
 0002:0000e24c       ??_C@_0CI@DOBFAMDB@Error?3?5can?8t?5allocate?5in_buffer?5@ 1006c24c     libmp3lame:lame.obj
 0002:0000e274       ??_C@_05EGIABMCH@Blues?$AA@ 1006c274     libmp3lame:id3tag.obj
 0002:0000e27c       ??_C@_0N@HMGLJNH@Classic?5Rock?$AA@ 1006c27c     libmp3lame:id3tag.obj
 0002:0000e28c       ??_C@_07HAAJMFIA@Country?$AA@ 1006c28c     libmp3lame:id3tag.obj
 0002:0000e294       ??_C@_05PHEECCHA@Dance?$AA@ 1006c294     libmp3lame:id3tag.obj
 0002:0000e29c       ??_C@_05JPKIAOHJ@Disco?$AA@ 1006c29c     libmp3lame:id3tag.obj
 0002:0000e2a4       ??_C@_04HGMPKBOD@Funk?$AA@ 1006c2a4     libmp3lame:id3tag.obj
 0002:0000e2ac       ??_C@_06BKAMGKHE@Grunge?$AA@ 1006c2ac     libmp3lame:id3tag.obj
 0002:0000e2b4       ??_C@_07HOOMJDLF@Hip?9Hop?$AA@ 1006c2b4     libmp3lame:id3tag.obj
 0002:0000e2bc       ??_C@_04CELCKEJG@Jazz?$AA@ 1006c2bc     libmp3lame:id3tag.obj
 0002:0000e2c4       ??_C@_05MICJANKE@Metal?$AA@ 1006c2c4     libmp3lame:id3tag.obj
 0002:0000e2cc       ??_C@_07NOBIPMGJ@New?5Age?$AA@ 1006c2cc     libmp3lame:id3tag.obj
 0002:0000e2d4       ??_C@_06MPHEKAMK@Oldies?$AA@ 1006c2d4     libmp3lame:id3tag.obj
 0002:0000e2dc       ??_C@_05BBOGGNLJ@Other?$AA@ 1006c2dc     libmp3lame:id3tag.obj
 0002:0000e2e4       ??_C@_03HJACNKKK@Pop?$AA@  1006c2e4     libmp3lame:id3tag.obj
 0002:0000e2e8       ??_C@_03EBDAPABP@R?$CGB?$AA@ 1006c2e8     libmp3lame:id3tag.obj
 0002:0000e2ec       ??_C@_03NJJFDPCL@Rap?$AA@  1006c2ec     libmp3lame:id3tag.obj
 0002:0000e2f0       ??_C@_06FCJMBMOE@Reggae?$AA@ 1006c2f0     libmp3lame:id3tag.obj
 0002:0000e2f8       ??_C@_04NENDLEAJ@Rock?$AA@ 1006c2f8     libmp3lame:id3tag.obj
 0002:0000e300       ??_C@_06GNBMDAPP@Techno?$AA@ 1006c300     libmp3lame:id3tag.obj
 0002:0000e308       ??_C@_0L@BLDOBJBN@Industrial?$AA@ 1006c308     libmp3lame:id3tag.obj
 0002:0000e314       ??_C@_0M@GIKKCPNF@Alternative?$AA@ 1006c314     libmp3lame:id3tag.obj
 0002:0000e320       ??_C@_03DPGHPOII@Ska?$AA@  1006c320     libmp3lame:id3tag.obj
 0002:0000e324       ??_C@_0M@EPABKDJI@Death?5Metal?$AA@ 1006c324     libmp3lame:id3tag.obj
 0002:0000e330       ??_C@_06DIJHLFMF@Pranks?$AA@ 1006c330     libmp3lame:id3tag.obj
 0002:0000e338       ??_C@_0L@JMHFNCF@Soundtrack?$AA@ 1006c338     libmp3lame:id3tag.obj
 0002:0000e344       ??_C@_0M@LPAFHLOI@Euro?9Techno?$AA@ 1006c344     libmp3lame:id3tag.obj
 0002:0000e350       ??_C@_07EBHHCJEE@Ambient?$AA@ 1006c350     libmp3lame:id3tag.obj
 0002:0000e358       ??_C@_08MGHEAHLN@Trip?9Hop?$AA@ 1006c358     libmp3lame:id3tag.obj
 0002:0000e364       ??_C@_05CGEGIIHL@Vocal?$AA@ 1006c364     libmp3lame:id3tag.obj
 0002:0000e36c       ??_C@_09IJAEMLMO@Jazz?$CLFunk?$AA@ 1006c36c     libmp3lame:id3tag.obj
 0002:0000e378       ??_C@_06FOAOBEBC@Fusion?$AA@ 1006c378     libmp3lame:id3tag.obj
 0002:0000e380       ??_C@_06NOFDHFLJ@Trance?$AA@ 1006c380     libmp3lame:id3tag.obj
 0002:0000e388       ??_C@_09KCDEIEAL@Classical?$AA@ 1006c388     libmp3lame:id3tag.obj
 0002:0000e394       ??_C@_0N@FJCNDAAI@Instrumental?$AA@ 1006c394     libmp3lame:id3tag.obj
 0002:0000e3a4       ??_C@_04DDEKHPPK@Acid?$AA@ 1006c3a4     libmp3lame:id3tag.obj
 0002:0000e3ac       ??_C@_05KEIICPIE@House?$AA@ 1006c3ac     libmp3lame:id3tag.obj
 0002:0000e3b4       ??_C@_04IBBNLEM@Game?$AA@  1006c3b4     libmp3lame:id3tag.obj
 0002:0000e3bc       ??_C@_0L@FEFCBAGD@Sound?5Clip?$AA@ 1006c3bc     libmp3lame:id3tag.obj
 0002:0000e3c8       ??_C@_06EIIEMBBK@Gospel?$AA@ 1006c3c8     libmp3lame:id3tag.obj
 0002:0000e3d0       ??_C@_05GIBOCELO@Noise?$AA@ 1006c3d0     libmp3lame:id3tag.obj
 0002:0000e3d8       ??_C@_0BB@CKCNMPIF@Alternative?5Rock?$AA@ 1006c3d8     libmp3lame:id3tag.obj
 0002:0000e3ec       ??_C@_04MKNBGPJB@Bass?$AA@ 1006c3ec     libmp3lame:id3tag.obj
 0002:0000e3f4       ??_C@_04LOFJNELM@Soul?$AA@ 1006c3f4     libmp3lame:id3tag.obj
 0002:0000e3fc       ??_C@_04JJGPMDMB@Punk?$AA@ 1006c3fc     libmp3lame:id3tag.obj
 0002:0000e404       ??_C@_05OMHELODH@Space?$AA@ 1006c404     libmp3lame:id3tag.obj
 0002:0000e40c       ??_C@_0L@KJEEODLG@Meditative?$AA@ 1006c40c     libmp3lame:id3tag.obj
 0002:0000e418       ??_C@_0BB@LFDKKLIN@Instrumental?5Pop?$AA@ 1006c418     libmp3lame:id3tag.obj
 0002:0000e42c       ??_C@_0BC@HBBFDJBD@Instrumental?5Rock?$AA@ 1006c42c     libmp3lame:id3tag.obj
 0002:0000e440       ??_C@_06JPHOEBPP@Ethnic?$AA@ 1006c440     libmp3lame:id3tag.obj
 0002:0000e448       ??_C@_06OBILIHNB@Gothic?$AA@ 1006c448     libmp3lame:id3tag.obj
 0002:0000e450       ??_C@_08BPJDAAFN@Darkwave?$AA@ 1006c450     libmp3lame:id3tag.obj
 0002:0000e45c       ??_C@_0BC@HKAKJIIF@Techno?9Industrial?$AA@ 1006c45c     libmp3lame:id3tag.obj
 0002:0000e470       ??_C@_0L@CHKMIMGG@Electronic?$AA@ 1006c470     libmp3lame:id3tag.obj
 0002:0000e47c       ??_C@_08EGAHBEGH@Pop?9Folk?$AA@ 1006c47c     libmp3lame:id3tag.obj
 0002:0000e488       ??_C@_09PDIMAOAM@Eurodance?$AA@ 1006c488     libmp3lame:id3tag.obj
 0002:0000e494       ??_C@_05MMFIBGEF@Dream?$AA@ 1006c494     libmp3lame:id3tag.obj
 0002:0000e49c       ??_C@_0O@KFCFCIGH@Southern?5Rock?$AA@ 1006c49c     libmp3lame:id3tag.obj
 0002:0000e4ac       ??_C@_06DCKLOHGE@Comedy?$AA@ 1006c4ac     libmp3lame:id3tag.obj
 0002:0000e4b4       ??_C@_04HAPBPEGD@Cult?$AA@ 1006c4b4     libmp3lame:id3tag.obj
 0002:0000e4bc       ??_C@_07NLDMPMFM@Gangsta?$AA@ 1006c4bc     libmp3lame:id3tag.obj
 0002:0000e4c4       ??_C@_06OJGPGEOE@Top?540?$AA@ 1006c4c4     libmp3lame:id3tag.obj
 0002:0000e4cc       ??_C@_0O@CMBOEJC@Christian?5Rap?$AA@ 1006c4cc     libmp3lame:id3tag.obj
 0002:0000e4dc       ??_C@_08DHOPNGPJ@Pop?1Funk?$AA@ 1006c4dc     libmp3lame:id3tag.obj
 0002:0000e4e8       ??_C@_06LDDNPE@Jungle?$AA@ 1006c4e8     libmp3lame:id3tag.obj
 0002:0000e4f0       ??_C@_09DGFAPIDC@Native?5US?$AA@ 1006c4f0     libmp3lame:id3tag.obj
 0002:0000e4fc       ??_C@_07DFBJIPEL@Cabaret?$AA@ 1006c4fc     libmp3lame:id3tag.obj
 0002:0000e504       ??_C@_08PIJBHODF@New?5Wave?$AA@ 1006c504     libmp3lame:id3tag.obj
 0002:0000e510       ??_C@_0M@NADCKJBA@Psychedelic?$AA@ 1006c510     libmp3lame:id3tag.obj
 0002:0000e51c       ??_C@_04LAGCIPCP@Rave?$AA@ 1006c51c     libmp3lame:id3tag.obj
 0002:0000e524       ??_C@_09LJJPFGGK@Showtunes?$AA@ 1006c524     libmp3lame:id3tag.obj
 0002:0000e530       ??_C@_07EFCJIPGP@Trailer?$AA@ 1006c530     libmp3lame:id3tag.obj
 0002:0000e538       ??_C@_05LPLFCCKI@Lo?9Fi?$AA@ 1006c538     libmp3lame:id3tag.obj
 0002:0000e540       ??_C@_06HGLDOOOH@Tribal?$AA@ 1006c540     libmp3lame:id3tag.obj
 0002:0000e548       ??_C@_09BPKAFLAF@Acid?5Punk?$AA@ 1006c548     libmp3lame:id3tag.obj
 0002:0000e554       ??_C@_09KCHNDMFC@Acid?5Jazz?$AA@ 1006c554     libmp3lame:id3tag.obj
 0002:0000e560       ??_C@_05BAEFIAKL@Polka?$AA@ 1006c560     libmp3lame:id3tag.obj
 0002:0000e568       ??_C@_05POEPDAA@Retro?$AA@ 1006c568     libmp3lame:id3tag.obj
 0002:0000e570       ??_C@_07CGEPLPCE@Musical?$AA@ 1006c570     libmp3lame:id3tag.obj
 0002:0000e578       ??_C@_0M@IIAEDJCA@Rock?5?$CG?5Roll?$AA@ 1006c578     libmp3lame:id3tag.obj
 0002:0000e584       ??_C@_09KBCOACPM@Hard?5Rock?$AA@ 1006c584     libmp3lame:id3tag.obj
 0002:0000e590       ??_C@_04EKOPMCHG@Folk?$AA@ 1006c590     libmp3lame:id3tag.obj
 0002:0000e598       ??_C@_09FEMCKJPD@Folk?9Rock?$AA@ 1006c598     libmp3lame:id3tag.obj
 0002:0000e5a4       ??_C@_0O@OLFCHJHJ@National?5Folk?$AA@ 1006c5a4     libmp3lame:id3tag.obj
 0002:0000e5b4       ??_C@_05KBAOLLBJ@Swing?$AA@ 1006c5b4     libmp3lame:id3tag.obj
 0002:0000e5bc       ??_C@_0M@LPPEJIPP@Fast?5Fusion?$AA@ 1006c5bc     libmp3lame:id3tag.obj
 0002:0000e5c8       ??_C@_05NIBALHLG@Bebob?$AA@ 1006c5c8     libmp3lame:id3tag.obj
 0002:0000e5d0       ??_C@_05MKNAELPL@Latin?$AA@ 1006c5d0     libmp3lame:id3tag.obj
 0002:0000e5d8       ??_C@_07NDAADGHD@Revival?$AA@ 1006c5d8     libmp3lame:id3tag.obj
 0002:0000e5e0       ??_C@_06POAALEMA@Celtic?$AA@ 1006c5e0     libmp3lame:id3tag.obj
 0002:0000e5e8       ??_C@_09EGIPCOAF@Bluegrass?$AA@ 1006c5e8     libmp3lame:id3tag.obj
 0002:0000e5f4       ??_C@_0L@MJHGFLKD@Avantgarde?$AA@ 1006c5f4     libmp3lame:id3tag.obj
 0002:0000e600       ??_C@_0M@IELMFHHK@Gothic?5Rock?$AA@ 1006c600     libmp3lame:id3tag.obj
 0002:0000e60c       ??_C@_0BB@GCFDGKOP@Progressive?5Rock?$AA@ 1006c60c     libmp3lame:id3tag.obj
 0002:0000e620       ??_C@_0BB@BMPGIMDB@Psychedelic?5Rock?$AA@ 1006c620     libmp3lame:id3tag.obj
 0002:0000e634       ??_C@_0P@FPGGCDAB@Symphonic?5Rock?$AA@ 1006c634     libmp3lame:id3tag.obj
 0002:0000e644       ??_C@_09DOKHDNBN@Slow?5Rock?$AA@ 1006c644     libmp3lame:id3tag.obj
 0002:0000e650       ??_C@_08INPKNPNL@Big?5Band?$AA@ 1006c650     libmp3lame:id3tag.obj
 0002:0000e65c       ??_C@_06HPKLMKFH@Chorus?$AA@ 1006c65c     libmp3lame:id3tag.obj
 0002:0000e664       ??_C@_0P@OGJNDFNF@Easy?5Listening?$AA@ 1006c664     libmp3lame:id3tag.obj
 0002:0000e674       ??_C@_08PLJDJOCM@Acoustic?$AA@ 1006c674     libmp3lame:id3tag.obj
 0002:0000e680       ??_C@_06DEMGCIL@Humour?$AA@ 1006c680     libmp3lame:id3tag.obj
 0002:0000e688       ??_C@_06MBBDLFLA@Speech?$AA@ 1006c688     libmp3lame:id3tag.obj
 0002:0000e690       ??_C@_07KBEDDHIP@Chanson?$AA@ 1006c690     libmp3lame:id3tag.obj
 0002:0000e698       ??_C@_05GOIKOHMD@Opera?$AA@ 1006c698     libmp3lame:id3tag.obj
 0002:0000e6a0       ??_C@_0O@HPFNKIBK@Chamber?5Music?$AA@ 1006c6a0     libmp3lame:id3tag.obj
 0002:0000e6b0       ??_C@_06DIKKNAE@Sonata?$AA@ 1006c6b0     libmp3lame:id3tag.obj
 0002:0000e6b8       ??_C@_08HGMGMDPB@Symphony?$AA@ 1006c6b8     libmp3lame:id3tag.obj
 0002:0000e6c4       ??_C@_0L@BMCAJHGC@Booty?5Bass?$AA@ 1006c6c4     libmp3lame:id3tag.obj
 0002:0000e6d0       ??_C@_06MOKNPJA@Primus?$AA@ 1006c6d0     libmp3lame:id3tag.obj
 0002:0000e6d8       ??_C@_0M@BDIBAHFD@Porn?5Groove?$AA@ 1006c6d8     libmp3lame:id3tag.obj
 0002:0000e6e4       ??_C@_06LGIFNCAO@Satire?$AA@ 1006c6e4     libmp3lame:id3tag.obj
 0002:0000e6ec       ??_C@_08BCJKABMD@Slow?5Jam?$AA@ 1006c6ec     libmp3lame:id3tag.obj
 0002:0000e6f8       ??_C@_04FCIPMBFO@Club?$AA@ 1006c6f8     libmp3lame:id3tag.obj
 0002:0000e700       ??_C@_05JHEGALN@Tango?$AA@ 1006c700     libmp3lame:id3tag.obj
 0002:0000e708       ??_C@_05JOIMBAIO@Samba?$AA@ 1006c708     libmp3lame:id3tag.obj
 0002:0000e710       ??_C@_08ODOIKEAG@Folklore?$AA@ 1006c710     libmp3lame:id3tag.obj
 0002:0000e71c       ??_C@_06BHBJEFGN@Ballad?$AA@ 1006c71c     libmp3lame:id3tag.obj
 0002:0000e724       ??_C@_0N@BBLJBJNI@Power?5Ballad?$AA@ 1006c724     libmp3lame:id3tag.obj
 0002:0000e734       ??_C@_0O@NBAHAMNI@Rhythmic?5Soul?$AA@ 1006c734     libmp3lame:id3tag.obj
 0002:0000e744       ??_C@_09NOJFLNHA@Freestyle?$AA@ 1006c744     libmp3lame:id3tag.obj
 0002:0000e750       ??_C@_04MNAABDPM@Duet?$AA@ 1006c750     libmp3lame:id3tag.obj
 0002:0000e758       ??_C@_09LJCHIEBA@Punk?5Rock?$AA@ 1006c758     libmp3lame:id3tag.obj
 0002:0000e764       ??_C@_09ODFCHLIF@Drum?5Solo?$AA@ 1006c764     libmp3lame:id3tag.obj
 0002:0000e770       ??_C@_0L@MNPOBBMF@A?5Cappella?$AA@ 1006c770     libmp3lame:id3tag.obj
 0002:0000e77c       ??_C@_0L@LAEGMFKC@Euro?9House?$AA@ 1006c77c     libmp3lame:id3tag.obj
 0002:0000e788       ??_C@_0L@LLLHEFCL@Dance?5Hall?$AA@ 1006c788     libmp3lame:id3tag.obj
 0002:0000e794       ??_C@_03OHBFJGJM@Goa?$AA@  1006c794     libmp3lame:id3tag.obj
 0002:0000e798       ??_C@_0M@NPGHKLH@Drum?5?$CG?5Bass?$AA@ 1006c798     libmp3lame:id3tag.obj
 0002:0000e7a4       ??_C@_0L@HMCMNNNL@Club?9House?$AA@ 1006c7a4     libmp3lame:id3tag.obj
 0002:0000e7b0       ??_C@_08HKEHKPDB@Hardcore?$AA@ 1006c7b0     libmp3lame:id3tag.obj
 0002:0000e7bc       ??_C@_06PBJGDPBN@Terror?$AA@ 1006c7bc     libmp3lame:id3tag.obj
 0002:0000e7c4       ??_C@_05KLKAMDMN@Indie?$AA@ 1006c7c4     libmp3lame:id3tag.obj
 0002:0000e7cc       ??_C@_07OICMGNA@BritPop?$AA@ 1006c7cc     libmp3lame:id3tag.obj
 0002:0000e7d4       ??_C@_09KOMLOGHM@Negerpunk?$AA@ 1006c7d4     libmp3lame:id3tag.obj
 0002:0000e7e0       ??_C@_0L@HKANPOAD@Polsk?5Punk?$AA@ 1006c7e0     libmp3lame:id3tag.obj
 0002:0000e7ec       ??_C@_04BFFABJBP@Beat?$AA@ 1006c7ec     libmp3lame:id3tag.obj
 0002:0000e7f4       ??_C@_0BC@PFEMLEJB@Christian?5Gangsta?$AA@ 1006c7f4     libmp3lame:id3tag.obj
 0002:0000e808       ??_C@_0M@NEOMPHCK@Heavy?5Metal?$AA@ 1006c808     libmp3lame:id3tag.obj
 0002:0000e814       ??_C@_0M@JNFPBAKG@Black?5Metal?$AA@ 1006c814     libmp3lame:id3tag.obj
 0002:0000e820       ??_C@_09OIHDMKNE@Crossover?$AA@ 1006c820     libmp3lame:id3tag.obj
 0002:0000e82c       ??_C@_0BH@IOJICMPF@Contemporary?5Christian?$AA@ 1006c82c     libmp3lame:id3tag.obj
 0002:0000e844       ??_C@_0P@GGLFOLPK@Christian?5Rock?$AA@ 1006c844     libmp3lame:id3tag.obj
 0002:0000e854       ??_C@_08EHKNMNPK@Merengue?$AA@ 1006c854     libmp3lame:id3tag.obj
 0002:0000e860       ??_C@_05DLNELOKM@Salsa?$AA@ 1006c860     libmp3lame:id3tag.obj
 0002:0000e868       ??_C@_0N@MAEFEGK@Thrash?5Metal?$AA@ 1006c868     libmp3lame:id3tag.obj
 0002:0000e878       ??_C@_05LCJADBKB@Anime?$AA@ 1006c878     libmp3lame:id3tag.obj
 0002:0000e880       ??_C@_04IMCHLCED@JPop?$AA@ 1006c880     libmp3lame:id3tag.obj
 0002:0000e888       ??_C@_08KEPHKCPD@SynthPop?$AA@ 1006c888     libmp3lame:id3tag.obj
 0002:0000e894       ??_C@_03MAMPKPPK@XXX?$AA@  1006c894     libmp3lame:id3tag.obj
 0002:0000e898       ??_C@_03FKNCMABI@?$CFlu?$AA@ 1006c898     libmp3lame:id3tag.obj
 0002:0000e89c       ??_C@_0L@PJKHLKFB@image?1jpeg?$AA@ 1006c89c     libmp3lame:id3tag.obj
 0002:0000e8a8       ??_C@_09NGJJJBGE@image?1png?$AA@ 1006c8a8     libmp3lame:id3tag.obj
 0002:0000e8b4       ??_C@_09HADNJIG@image?1gif?$AA@ 1006c8b4     libmp3lame:id3tag.obj
 0002:0000e8c0       ??_C@_02DPKJAMEF@?$CFd?$AA@ 1006c8c0     libmp3lame:id3tag.obj
 0002:0000e8c4       ??_C@_06HHEODPII@3?499?45?$AA@ 1006c8c4     libmp3lame:version.obj
 0002:0000e8cc       ??_C@_0BD@CIOPPHEI@http?3?1?1lame?4sf?4net?$AA@ 1006c8cc     libmp3lame:version.obj
 0002:0000e8e0       ??_C@_06EAJMEPPF@32bits?$AA@ 1006c8e0     libmp3lame:version.obj
 0002:0000e8e8       ??_C@_06MEPNIDEP@64bits?$AA@ 1006c8e8     libmp3lame:version.obj
 0002:0000e8f0       ??_C@_0DB@EJLADBBI@Error?3?5MAX_HEADER_BUF?5too?5small?5@ 1006c8f0     libmp3lame:bitstream.obj
 0002:0000e924       ??_C@_0CE@MLJFCMKN@strange?5error?5flushing?5buffer?5?4?4@ 1006c924     libmp3lame:bitstream.obj
 0002:0000e948       ??_C@_0DF@BPHLLGHC@Internal?5buffer?5inconsistency?4?5f@ 1006c948     libmp3lame:bitstream.obj
 0002:0000e980       ??_C@_0BBH@PPBGFIEC@bit?5reservoir?5error?3?5?6l3_side?9?$DOm@ 1006c980     libmp3lame:bitstream.obj
 0002:0000ea98       ??_C@_0DI@DFGHOLND@This?5is?5a?5fatal?5error?4?5?5It?5has?5s@ 1006ca98     libmp3lame:bitstream.obj
 0002:0000ead0       ??_C@_0EL@BNOLJPOH@90?$CF?$CF?5?5LAME?5compiled?5with?5buggy?5v@ 1006cad0     libmp3lame:bitstream.obj
 0002:0000eb1c       ??_C@_0CB@CHENHKNJ@?59?$CF?$CF?5?5Your?5system?5is?5overclocked@ 1006cb1c     libmp3lame:bitstream.obj
 0002:0000eb40       ??_C@_0CD@OBIAECME@?51?$CF?$CF?5?5bug?5in?5LAME?5encoding?5libra@ 1006cb40     libmp3lame:bitstream.obj
 0002:0000eb64       ??_C@_0CI@LELFCFFB@Error?3?5can?8t?5allocate?5VbrFrames?5@ 1006cb64     libmp3lame:VbrTag.obj
 0002:0000eb8c       ??_C@_0DI@PCNINCMI@INTERNAL?5ERROR?5IN?5VBR?5NEW?5CODE?0?5@ 1006cb8c     libmp3lame:quantize.obj
 0002:0000ebc4       ??_C@_0CG@GKEADOFJ@intensity?5stereo?5not?5implemented@ 1006cbc4     libmp3lame:takehiro.obj
 0002:0000ebec       ??_C@_0DO@BNLHIGAN@INTERNAL?5ERROR?5IN?5VBR?5NEW?5CODE?5?$CI@ 1006cbec     libmp3lame:vbrquantize.obj
 0002:0000ec30       ??_C@_0FG@KBFNAJMM@INTERNAL?5ERROR?5IN?5VBR?5NEW?5CODE?5?$CI@ 1006cc30     libmp3lame:vbrquantize.obj
 0002:0000ec88       ??_C@_0FC@LNEJEKEJ@?6Note?3?5Cut?5frame?5?$CFli?5buffer?5on?5e@ 1006cc88     libmpg123:libmpg123.obj
 0002:0000ece0       ??_C@_0FI@JAPEDGDK@?6Note?3?5Cut?5frame?5?$CFli?5buffer?5on?5b@ 1006cce0     libmpg123:libmpg123.obj
 0002:0000ed38       ??_C@_0JN@ILNAENEH@?$FL?4?4?2?4?4?2?4?4?2deps?2mpg123?2src?2libmpg@ 1006cd38     libmpg123:libmpg123.obj
 0002:0000edd8       ??_C@_0DO@EKAFLIIH@Note?3?5broken?5frame?5?$CFli?0?5filling?5@ 1006cdd8     libmpg123:libmpg123.obj
 0002:0000ee18       ??_C@_04HAPDLBFF@auto?$AA@ 1006ce18     libmpg123:optimize.obj
 0002:0000ee20       ??_C@_07DCLBNMLN@generic?$AA@ 1006ce20     libmpg123:optimize.obj
 0002:0000ee28       ??_C@_0P@COAKLPOI@generic_dither?$AA@ 1006ce28     libmpg123:optimize.obj
 0002:0000ee38       ??_C@_04OMAFGPMM@i386?$AA@ 1006ce38     libmpg123:optimize.obj
 0002:0000ee40       ??_C@_04HBNCFHHF@i486?$AA@ 1006ce40     libmpg123:optimize.obj
 0002:0000ee48       ??_C@_04MJGODABA@i586?$AA@ 1006ce48     libmpg123:optimize.obj
 0002:0000ee50       ??_C@_0M@DDDCKPJB@i586_dither?$AA@ 1006ce50     libmpg123:optimize.obj
 0002:0000ee5c       ??_C@_05DJJOJJPE@3DNow?$AA@ 1006ce5c     libmpg123:optimize.obj
 0002:0000ee64       ??_C@_08LIICHJDA@3DNowExt?$AA@ 1006ce64     libmpg123:optimize.obj
 0002:0000ee70       ??_C@_07NJMHPPEO@AltiVec?$AA@ 1006ce70     libmpg123:optimize.obj
 0002:0000ee78       ??_C@_06LCMIGLBN@x86?964?$AA@ 1006ce78     libmpg123:optimize.obj
 0002:0000ee80       ??_C@_03NHPMNECN@ARM?$AA@  1006ce80     libmpg123:optimize.obj
 0002:0000ee84       ??_C@_04GHOIOOLD@NEON?$AA@ 1006ce84     libmpg123:optimize.obj
 0002:0000ee8c       ??_C@_05NDCJIBBB@nodec?$AA@ 1006ce8c     libmpg123:optimize.obj
 0002:0000ee98       ??_C@_0HP@EANFMBAL@?$FL?4?4?2?4?4?2?4?4?2deps?2mpg123?2src?2libmpg@ 1006ce98     libmpg123:optimize.obj
 0002:0000ef18       ??_C@_0HO@CGGGPGGD@?$FL?4?4?2?4?4?2?4?4?2deps?2mpg123?2src?2libmpg@ 1006cf18     libmpg123:optimize.obj
 0002:0000ef98       ??_C@_0IF@KHNHPOPN@?$FL?4?4?2?4?4?2?4?4?2deps?2mpg123?2src?2libmpg@ 1006cf98     libmpg123:optimize.obj
 0002:0000f020       ??_C@_0FN@FAIOFMBA@?$FL?4?4?2?4?4?2?4?4?2deps?2mpg123?2src?2libmpg@ 1006d020     libmpg123:optimize.obj
 0002:0000f080       ??_C@_0FN@NPNOPOKK@?$FL?4?4?2?4?4?2?4?4?2deps?2mpg123?2src?2libmpg@ 1006d080     libmpg123:optimize.obj
 0002:0000f0e0       ??_C@_0N@GJHDCDKJ@Decoder?3?5?$CFs?6?$AA@ 1006d0e0     libmpg123:optimize.obj
 0002:0000f0f0       ??_C@_0GD@EGAOHGLA@?$FL?4?4?2?4?4?2?4?4?2deps?2mpg123?2src?2libmpg@ 1006d0f0     libmpg123:frame.obj
 0002:0000f158       ??_C@_0GK@PFBMEPLD@?$FL?4?4?2?4?4?2?4?4?2deps?2mpg123?2src?2libmpg@ 1006d158     libmpg123:frame.obj
 0002:0000f1c8       ??_C@_0GF@MJNIGBGI@?$FL?4?4?2?4?4?2?4?4?2deps?2mpg123?2src?2libmpg@ 1006d1c8     libmpg123:frame.obj
 0002:0000f230       ??_C@_0BO@EEJILHCB@Note?3?5doing?5RVA?5with?5gain?5?$CFf?6?$AA@ 1006d230     libmpg123:frame.obj
 0002:0000f250       ??_C@_0IK@BLABFKIJ@?$FL?4?4?2?4?4?2?4?4?2deps?2mpg123?2src?2libmpg@ 1006d250     libmpg123:frame.obj
 0002:0000f2e0       ??_C@_0FA@FOPKLIAD@?$FL?4?4?2?4?4?2?4?4?2deps?2mpg123?2src?2libmpg@ 1006d2e0     libmpg123:index.obj
 0002:0000f330       ??_C@_04JEJHKEED@TIT2?$AA@ 1006d330     libmpg123:id3.obj
 0002:0000f338       ??_C@_04GMCJAHJC@TALB?$AA@ 1006d338     libmpg123:id3.obj
 0002:0000f340       ??_C@_04IPEPCGNC@TPE1?$AA@ 1006d340     libmpg123:id3.obj
 0002:0000f348       ??_C@_04LMJHFBDM@TYER?$AA@ 1006d348     libmpg123:id3.obj
 0002:0000f350       ??_C@_04GINDDOEM@TCON?$AA@ 1006d350     libmpg123:id3.obj
 0002:0000f358       ??_C@_0GC@DDMMOJMB@?$FL?4?4?2?4?4?2?4?4?2deps?2mpg123?2src?2libmpg@ 1006d358     libmpg123:id3.obj
 0002:0000f3c0       ??_C@_0HG@CFHNKMGC@?$FL?4?4?2?4?4?2?4?4?2deps?2mpg123?2src?2libmpg@ 1006d3c0     libmpg123:id3.obj
 0002:0000f438       ??_C@_0GK@LJEIPDMM@?$FL?4?4?2?4?4?2?4?4?2deps?2mpg123?2src?2libmpg@ 1006d438     libmpg123:id3.obj
 0002:0000f4a8       ??_C@_0KH@FEADOIPF@?$FL?4?4?2?4?4?2?4?4?2deps?2mpg123?2src?2libmpg@ 1006d4a8     libmpg123:id3.obj
 0002:0000f550       ??_C@_07OIFGCLOM@Latin?51?$AA@ 1006d550     libmpg123:id3.obj
 0002:0000f558       ??_C@_0L@PAGPBKBM@UTF?916?5BOM?$AA@ 1006d558     libmpg123:id3.obj
 0002:0000f564       ??_C@_09JCALINDH@UTF?916?5BE?$AA@ 1006d564     libmpg123:id3.obj
 0002:0000f570       ??_C@_05EGJIMALK@UTF?98?$AA@ 1006d570     libmpg123:id3.obj
 0002:0000f578       ??_C@_08POLACCAH@unknown?$CB?$AA@ 1006d578     libmpg123:id3.obj
 0002:0000f584       ??_C@_0CF@IOFFJPFJ@Note?3?5Storing?5text?5from?5?$CFs?5encod@ 1006d584     libmpg123:id3.obj
 0002:0000f5b0       ??_C@_0FB@FHAAPMHH@?$FL?4?4?2?4?4?2?4?4?2deps?2mpg123?2src?2libmpg@ 1006d5b0     libmpg123:id3.obj
 0002:0000f604       ??_C@_0CF@EOOPGNF@Note?3?5ID3v2?5?$CFc?$CFc?$CFc?$CFc?5text?5frame?3@ 1006d604     libmpg123:id3.obj
 0002:0000f630       ??_C@_0GK@HLEMDBJH@?$FL?4?4?2?4?4?2?4?4?2deps?2mpg123?2src?2libmpg@ 1006d630     libmpg123:id3.obj
 0002:0000f69c       ??_C@_0CI@JCLLDDIO@Note?3?5Storing?5comment?5from?5?$CFs?5en@ 1006d69c     libmpg123:id3.obj
 0002:0000f6c8       ??_C@_0FE@KALAEMAP@?$FL?4?4?2?4?4?2?4?4?2deps?2mpg123?2src?2libmpg@ 1006d6c8     libmpg123:id3.obj
 0002:0000f720       ??_C@_0FL@GCBPBPEK@?$FL?4?4?2?4?4?2?4?4?2deps?2mpg123?2src?2libmpg@ 1006d720     libmpg123:id3.obj
 0002:0000f77c       ??_C@_0CJ@JPPNAMLH@Note?3?5ID3?5comm?1uslt?5desc?5of?5leng@ 1006d77c     libmpg123:id3.obj
 0002:0000f7a8       ??_C@_0CJ@LBGDNDAL@Note?3?5ID3?5comm?1uslt?5text?5of?5leng@ 1006d7a8     libmpg123:id3.obj
 0002:0000f7d4       ??_C@_03DDBHAGPA@rva?$AA@  1006d7d4     libmpg123:id3.obj
 0002:0000f7d8       ??_C@_07OLFHPLAA@rva_mix?$AA@ 1006d7d8     libmpg123:id3.obj
 0002:0000f7e0       ??_C@_09PIAPOKAD@rva_track?$AA@ 1006d7e0     libmpg123:id3.obj
 0002:0000f7ec       ??_C@_09FHDDFEKM@rva_radio?$AA@ 1006d7ec     libmpg123:id3.obj
 0002:0000f7f8       ??_C@_09CIIAIHGC@rva_album?$AA@ 1006d7f8     libmpg123:id3.obj
 0002:0000f804       ??_C@_0P@IGDHNNAC@rva_audiophile?$AA@ 1006d804     libmpg123:id3.obj
 0002:0000f814       ??_C@_08GGCIBHBE@rva_user?$AA@ 1006d814     libmpg123:id3.obj
 0002:0000f820       ??_C@_0BG@GOHMJNID@Note?3?5RVA?5value?5?$CFfdB?6?$AA@ 1006d820     libmpg123:id3.obj
 0002:0000f838       ??_C@_0CG@CANBKPAO@Note?3?5Storing?5extra?5from?5?$CFs?5enco@ 1006d838     libmpg123:id3.obj
 0002:0000f860       ??_C@_0FP@MCOBJCLI@?$FL?4?4?2?4?4?2?4?4?2deps?2mpg123?2src?2libmpg@ 1006d860     libmpg123:id3.obj
 0002:0000f8c0       ??_C@_0FH@BGJHIGAN@?$FL?4?4?2?4?4?2?4?4?2deps?2mpg123?2src?2libmpg@ 1006d8c0     libmpg123:id3.obj
 0002:0000f918       ??_C@_0BC@HFGFFAPH@replaygain_track_?$AA@ 1006d918     libmpg123:id3.obj
 0002:0000f92c       ??_C@_0CG@LHFMHPFF@Note?3?5RVA?5ReplayGain?5track?5gain?1@ 1006d92c     libmpg123:id3.obj
 0002:0000f954       ??_C@_0BG@HFNOOOHK@replaygain_track_peak?$AA@ 1006d954     libmpg123:id3.obj
 0002:0000f96c       ??_C@_0BG@FLBIJHEC@replaygain_track_gain?$AA@ 1006d96c     libmpg123:id3.obj
 0002:0000f984       ??_C@_0BC@EPAAIOFE@replaygain_album_?$AA@ 1006d984     libmpg123:id3.obj
 0002:0000f998       ??_C@_0CG@LNOOAAOP@Note?3?5RVA?5ReplayGain?5album?5gain?1@ 1006d998     libmpg123:id3.obj
 0002:0000f9c0       ??_C@_0BG@HDJBAGPL@replaygain_album_peak?$AA@ 1006d9c0     libmpg123:id3.obj
 0002:0000f9d8       ??_C@_0BG@FNFHHPMD@replaygain_album_gain?$AA@ 1006d9d8     libmpg123:id3.obj
 0002:0000f9f0       ??_C@_0BD@PKJHPPNP@Note?3?5RVA?5peak?5?$CFf?6?$AA@ 1006d9f0     libmpg123:id3.obj
 0002:0000fa04       ??_C@_0BF@ELECAJA@Note?3?5RVA?5gain?5?$CFfdB?6?$AA@ 1006da04     libmpg123:id3.obj
 0002:0000fa1c       ??_C@_03GJALCMIF@COM?$AA@  1006da1c     libmpg123:id3.obj
 0002:0000fa20       ??_C@_03LHEAFPOI@TAL?$AA@  1006da20     libmpg123:id3.obj
 0002:0000fa24       ??_C@_03FDHBLMOM@TBP?$AA@  1006da24     libmpg123:id3.obj
 0002:0000fa28       ??_C@_03KNNPLKMH@TCM?$AA@  1006da28     libmpg123:id3.obj
 0002:0000fa2c       ??_C@_03JPOJNIEF@TCO?$AA@  1006da2c     libmpg123:id3.obj
 0002:0000fa30       ??_C@_03GAIFLEFJ@TCR?$AA@  1006da30     libmpg123:id3.obj
 0002:0000fa34       ??_C@_03ECFODEO@TDA?$AA@   1006da34     libmpg123:id3.obj
 0002:0000fa38       ??_C@_03IGDOHLBH@TDY?$AA@  1006da38     libmpg123:id3.obj
 0002:0000fa3c       ??_C@_03ICHPJFLG@TEN?$AA@  1006da3c     libmpg123:id3.obj
 0002:0000fa40       ??_C@_03DABENBDE@TFT?$AA@  1006da40     libmpg123:id3.obj
 0002:0000fa44       ??_C@_03KAEIDPBB@TIM?$AA@  1006da44     libmpg123:id3.obj
 0002:0000fa48       ??_C@_03GLBFGBHH@TKE?$AA@  1006da48     libmpg123:id3.obj
 0002:0000fa4c       ??_C@_03KDGLCPG@TLA?$AA@   1006da4c     libmpg123:id3.obj
 0002:0000fa50       ??_C@_03GOFKHHPC@TLE?$AA@  1006da50     libmpg123:id3.obj
 0002:0000fa54       ??_C@_03DMEBDONF@TMT?$AA@  1006da54     libmpg123:id3.obj
 0002:0000fa58       ??_C@_03IHAAMKP@TOA?$AA@   1006da58     libmpg123:id3.obj
 0002:0000fa5c       ??_C@_03EHDBJKGI@TOF?$AA@  1006da5c     libmpg123:id3.obj
 0002:0000fa60       ??_C@_03LNNOHCOC@TOL?$AA@  1006da60     libmpg123:id3.obj
 0002:0000fa64       ??_C@_03GJJPENDN@TOR?$AA@  1006da64     libmpg123:id3.obj
 0002:0000fa68       ??_C@_03DPMFOKLL@TOT?$AA@  1006da68     libmpg123:id3.obj
 0002:0000fa6c       ??_C@_03DADFJBBE@TP1?$AA@  1006da6c     libmpg123:id3.obj
 0002:0000fa70       ??_C@_03BLBIMCNH@TP2?$AA@  1006da70     libmpg123:id3.obj
 0002:0000fa74       ??_C@_03CADPDJG@TP3?$AA@   1006da74     libmpg123:id3.obj
 0002:0000fa78       ??_C@_03ENECGFFB@TP4?$AA@  1006da78     libmpg123:id3.obj
 0002:0000fa7c       ??_C@_03BPAKOIOC@TPA?$AA@  1006da7c     libmpg123:id3.obj
 0002:0000fa80       ??_C@_03DECHLLCB@TPB?$AA@  1006da80     libmpg123:id3.obj
 0002:0000fa84       ??_C@_03COLIFOAO@TRC?$AA@  1006da84     libmpg123:id3.obj
 0002:0000fa88       ??_C@_03OGGBNEAG@TRK?$AA@  1006da88     libmpg123:id3.obj
 0002:0000fa8c       ??_C@_03NFJFNMLD@TSI?$AA@  1006da8c     libmpg123:id3.obj
 0002:0000fa90       ??_C@_03GFLICGGI@TSS?$AA@  1006da90     libmpg123:id3.obj
 0002:0000fa94       ??_C@_03DHDMDJMI@TT1?$AA@  1006da94     libmpg123:id3.obj
 0002:0000fa98       ??_C@_03BMBBGKAL@TT2?$AA@  1006da98     libmpg123:id3.obj
 0002:0000fa9c       ??_C@_03FAKFLEK@TT3?$AA@   1006da9c     libmpg123:id3.obj
 0002:0000faa0       ??_C@_03CGKMFPEO@TXT?$AA@  1006daa0     libmpg123:id3.obj
 0002:0000faa4       ??_C@_03IKBJBAEC@TXX?$AA@  1006daa4     libmpg123:id3.obj
 0002:0000faa8       ??_C@_03HELHBGGJ@TYE?$AA@  1006daa8     libmpg123:id3.obj
 0002:0000faac       ??_C@_04NIGMENML@COMM?$AA@ 1006daac     libmpg123:id3.obj
 0002:0000fab4       ??_C@_04OMDIOOKH@TBPM?$AA@ 1006dab4     libmpg123:id3.obj
 0002:0000fabc       ??_C@_04EDPOGNIP@TCOM?$AA@ 1006dabc     libmpg123:id3.obj
 0002:0000fac4       ??_C@_04LMJCABJD@TCOP?$AA@ 1006dac4     libmpg123:id3.obj
 0002:0000facc       ??_C@_04EPLHNBCE@TDAT?$AA@ 1006dacc     libmpg123:id3.obj
 0002:0000fad4       ??_C@_04PCMBDMDK@TDLY?$AA@ 1006dad4     libmpg123:id3.obj
 0002:0000fadc       ??_C@_04PJNEHFOK@TENC?$AA@ 1006dadc     libmpg123:id3.obj
 0002:0000fae4       ??_C@_04ONGGIKPM@TFLT?$AA@ 1006dae4     libmpg123:id3.obj
 0002:0000faec       ??_C@_04OHBONDIN@TIME?$AA@ 1006daec     libmpg123:id3.obj
 0002:0000faf4       ??_C@_04KFHDBHOD@TKEY?$AA@ 1006daf4     libmpg123:id3.obj
 0002:0000fafc       ??_C@_04DKCOADBA@TLAN?$AA@ 1006dafc     libmpg123:id3.obj
 0002:0000fb04       ??_C@_04DNCHKLMM@TLEN?$AA@ 1006db04     libmpg123:id3.obj
 0002:0000fb0c       ??_C@_04HPHECECD@TMED?$AA@ 1006db0c     libmpg123:id3.obj
 0002:0000fb14       ??_C@_04NGILLMHC@TOPE?$AA@ 1006db14     libmpg123:id3.obj
 0002:0000fb1c       ??_C@_04CNNELKHL@TOFN?$AA@ 1006db1c     libmpg123:id3.obj
 0002:0000fb24       ??_C@_04CFMALLDL@TOLY?$AA@ 1006db24     libmpg123:id3.obj
 0002:0000fb2c       ??_C@_04DDHIDFEB@TORY?$AA@ 1006db2c     libmpg123:id3.obj
 0002:0000fb34       ??_C@_04BKKNMOHM@TOAL?$AA@ 1006db34     libmpg123:id3.obj
 0002:0000fb3c       ??_C@_04KEGCHFBB@TPE2?$AA@ 1006db3c     libmpg123:id3.obj
 0002:0000fb44       ??_C@_04LNHJEEFA@TPE3?$AA@ 1006db44     libmpg123:id3.obj
 0002:0000fb4c       ??_C@_04PCDINCJH@TPE4?$AA@ 1006db4c     libmpg123:id3.obj
 0002:0000fb54       ??_C@_04NFBDKKCB@TPOS?$AA@ 1006db54     libmpg123:id3.obj
 0002:0000fb5c       ??_C@_04JHHLKPJH@TPUB?$AA@ 1006db5c     libmpg123:id3.obj
 0002:0000fb64       ??_C@_04JJJKCHLN@TSRC?$AA@ 1006db64     libmpg123:id3.obj
 0002:0000fb6c       ??_C@_04LLLPNJI@TRDA?$AA@  1006db6c     libmpg123:id3.obj
 0002:0000fb74       ??_C@_04PEBLADJH@TRCK?$AA@ 1006db74     libmpg123:id3.obj
 0002:0000fb7c       ??_C@_04BCOJMCDE@TSIZ?$AA@ 1006db7c     libmpg123:id3.obj
 0002:0000fb84       ??_C@_04MOACOKAM@TSSE?$AA@ 1006db84     libmpg123:id3.obj
 0002:0000fb8c       ??_C@_04LPLKPHIA@TIT1?$AA@ 1006db8c     libmpg123:id3.obj
 0002:0000fb94       ??_C@_04INIMJFAC@TIT3?$AA@ 1006db94     libmpg123:id3.obj
 0002:0000fb9c       ??_C@_04OEPMCOLO@TEXT?$AA@ 1006db9c     libmpg123:id3.obj
 0002:0000fba4       ??_C@_04OKDKOOPA@TXXX?$AA@ 1006dba4     libmpg123:id3.obj
 0002:0000fbac       ??_C@_0CD@MKAHHIIM@Translated?5ID3v2?42?5frame?5?$CFs?5to?5?$CF@ 1006dbac     libmpg123:id3.obj
 0002:0000fbd0       ??_C@_0CM@EBMOFCAF@Ignoring?5untranslated?5ID3v2?42?5fr@ 1006dbd0     libmpg123:id3.obj
 0002:0000fc00       ??_C@_0IG@ICMNCIHP@?$FL?4?4?2?4?4?2?4?4?2deps?2mpg123?2src?2libmpg@ 1006dc00     libmpg123:id3.obj
 0002:0000fc88       ??_C@_0CI@EPIBLGHH@Note?3?5ID3v2?4?$CFi?5rev?5?$CFi?5tag?5of?5?$CFlu@ 1006dc88     libmpg123:id3.obj
 0002:0000fcb0       ??_C@_0CM@HKPHPHCH@Note?3?5Skipping?5ID3v2?5tag?5per?5use@ 1006dcb0     libmpg123:id3.obj
 0002:0000fce0       ??_C@_0JP@ONMLNJF@?$FL?4?4?2?4?4?2?4?4?2deps?2mpg123?2src?2libmpg@ 1006dce0     libmpg123:id3.obj
 0002:0000fd80       ??_C@_0GJ@LJGJEKKD@?$FL?4?4?2?4?4?2?4?4?2deps?2mpg123?2src?2libmpg@ 1006dd80     libmpg123:id3.obj
 0002:0000fdf0       ??_C@_0HK@BJMNGGE@?$FL?4?4?2?4?4?2?4?4?2deps?2mpg123?2src?2libmpg@ 1006ddf0     libmpg123:id3.obj
 0002:0000fe6c       ??_C@_0CC@CJGBCIEO@Note?3?5ID3v2?5?$CFs?5frame?5of?5size?5?$CFlu@ 1006de6c     libmpg123:id3.obj
 0002:0000fe90       ??_C@_0HM@FCIEFAJK@?$FL?4?4?2?4?4?2?4?4?2deps?2mpg123?2src?2libmpg@ 1006de90     libmpg123:id3.obj
 0002:0000ff10       ??_C@_0GC@NKBHEOEE@?$FL?4?4?2?4?4?2?4?4?2deps?2mpg123?2src?2libmpg@ 1006df10     libmpg123:id3.obj
 0002:0000ff78       ??_C@_0GN@NKFDNHAE@?$FL?4?4?2?4?4?2?4?4?2deps?2mpg123?2src?2libmpg@ 1006df78     libmpg123:id3.obj
 0002:0000ffe8       ??_C@_0CA@JMPJDLMC@Note?3?5RVA2?5identification?5?$CC?$CFs?$CC?6?$AA@ 1006dfe8     libmpg123:id3.obj
 0002:00010008       ??_C@_0L@BLJODKGB@audiophile?$AA@ 1006e008     libmpg123:id3.obj
 0002:00010014       ??_C@_04CCHAHKJA@user?$AA@ 1006e014     libmpg123:id3.obj
 0002:00010020       ??_C@_0FD@KILIGM@?$FL?4?4?2?4?4?2?4?4?2deps?2mpg123?2src?2libmpg@ 1006e020     libmpg123:id3.obj
 0002:00010078       ??_C@_0GD@GHOIEKKI@?$FL?4?4?2?4?4?2?4?4?2deps?2mpg123?2src?2libmpg@ 1006e078     libmpg123:id3.obj
 0002:000100e0       ??_C@_0JG@CHOGOLLD@?$FL?4?4?2?4?4?2?4?4?2deps?2mpg123?2src?2libmpg@ 1006e0e0     libmpg123:id3.obj
 0002:00010178       ??_C@_0GF@HLKODFDN@?$FL?4?4?2?4?4?2?4?4?2deps?2mpg123?2src?2libmpg@ 1006e178     libmpg123:id3.obj
 0002:000101e0       ??_C@_06GIIPNMDE@8bit?0?5?$AA@ 1006e1e0     libmpg123:format.obj
 0002:000101e8       ??_C@_08PBOCMAON@stereo?0?5?$AA@ 1006e1e8     libmpg123:format.obj
 0002:000101f4       ??_C@_06JAMEAFHE@mono?0?5?$AA@ 1006e1f4     libmpg123:format.obj
 0002:00010200       ??_C@_0HB@NOFCJEEM@?$FL?4?4?2?4?4?2?4?4?2deps?2mpg123?2src?2libmpg@ 1006e200     libmpg123:format.obj
 0002:00010278       ??_C@_0HN@PPBPKOAG@?$FL?4?4?2?4?4?2?4?4?2deps?2mpg123?2src?2libmpg@ 1006e278     libmpg123:format.obj
 0002:000102f8       ??_C@_0FH@OHBFKAPH@?$FL?4?4?2?4?4?2?4?4?2deps?2mpg123?2src?2libmpg@ 1006e2f8     libmpg123:format.obj
 0002:00010350       ??_C@_0BN@NBAGODD@Note?3?5Enabling?5all?5formats?4?6?$AA@ 1006e350     libmpg123:format.obj
 0002:00010370       ??_C@_0HH@BKHEKKEE@?$FL?4?4?2?4?4?2?4?4?2deps?2mpg123?2src?2libmpg@ 1006e370     libmpg123:readers.obj
 0002:000103e8       ??_C@_0EM@CHADBAPC@?$FL?4?4?2?4?4?2?4?4?2deps?2mpg123?2src?2libmpg@ 1006e3e8     libmpg123:readers.obj
 0002:00010438       ??_C@_0EL@OPMMFDMO@?$FL?4?4?2?4?4?2?4?4?2deps?2mpg123?2src?2libmpg@ 1006e438     libmpg123:readers.obj
 0002:00010488       ??_C@_0EL@JFOBGDAL@?$FL?4?4?2?4?4?2?4?4?2deps?2mpg123?2src?2libmpg@ 1006e488     libmpg123:readers.obj
 0002:000104d8       ??_C@_0IM@JKFJBLAE@?$FL?4?4?2?4?4?2?4?4?2deps?2mpg123?2src?2libmpg@ 1006e4d8     libmpg123:readers.obj
 0002:00010568       ??_C@_0FC@LFDJJLDM@?$FL?4?4?2?4?4?2?4?4?2deps?2mpg123?2src?2libmpg@ 1006e568     libmpg123:readers.obj
 0002:000105bc       ??_C@_03FELEIGCD@TAG?$AA@  1006e5bc     libmpg123:readers.obj
 0002:000105c0       ??_C@_0FL@POOCPIMI@?$FL?4?4?2?4?4?2?4?4?2deps?2mpg123?2src?2libmpg@ 1006e5c0     libmpg123:readers.obj
 0002:00010620       ??_C@_0EJ@JJLDIDBA@?$FL?4?4?2?4?4?2?4?4?2deps?2mpg123?2src?2libmpg@ 1006e620     libmpg123:readers.obj
 0002:00010670       ??_C@_0FN@OEDEAPMJ@?$FL?4?4?2?4?4?2?4?4?2deps?2mpg123?2src?2libmpg@ 1006e670     libmpg123:readers.obj
 0002:000106d0       ??_C@_0BH@FNIFIPLL@Note?3?5Input?5data?5end?4?6?$AA@ 1006e6d0     libmpg123:readers.obj
 0002:000106e8       ??_C@_0EM@BKICAFJI@?$FL?4?4?2?4?4?2?4?4?2deps?2mpg123?2src?2libmpg@ 1006e6e8     libmpg123:readers.obj
 0002:00010738       ??_C@_0GE@POICCKKP@?$FL?4?4?2?4?4?2?4?4?2deps?2mpg123?2src?2libmpg@ 1006e738     libmpg123:readers.obj
 0002:000107a0       ??_C@_0FN@HLHKKKMD@?$FL?4?4?2?4?4?2?4?4?2deps?2mpg123?2src?2libmpg@ 1006e7a0     libmpg123:readers.obj
 0002:00010800       ??_C@_0CP@INHFFCOL@Truncating?5stereo?5boundary?5to?5si@ 1006e800     libmpg123:layer2.obj
 0002:00010830       ??_C@_0BP@CPJPHBLB@Init?5rate?5converter?3?5?$CFld?9?$DO?$CFld?6?$AA@ 1006e830     libmpg123:ntom.obj
 0002:00010850       ??_C@_0FF@PAFPGDBB@?$FL?4?4?2?4?4?2?4?4?2deps?2mpg123?2src?2libmpg@ 1006e850     libmpg123:ntom.obj
 0002:000108a8       ??_C@_0GC@ENPHBKFM@?$FL?4?4?2?4?4?2?4?4?2deps?2mpg123?2src?2libmpg@ 1006e8a8     libmpg123:ntom.obj
 0002:0001090c       ??_C@_0DH@BLNOIOAL@Note?3?5missing?5?$CFd?5bytes?5in?5bit?5re@ 1006e90c     libmpg123:layer3.obj
 0002:00010948       ??_C@_0EP@JJEIAMLA@?$FL?4?4?2?4?4?2?4?4?2deps?2mpg123?2src?2libmpg@ 1006e948     libmpg123:layer3.obj
 0002:00010998       ??_C@_0GP@HHEBENJH@?$FL?4?4?2?4?4?2?4?4?2deps?2mpg123?2src?2libmpg@ 1006e998     libmpg123:layer3.obj
 0002:00010a08       ??_C@_0FN@MFLPECLC@?$FL?4?4?2?4?4?2?4?4?2deps?2mpg123?2src?2libmpg@ 1006ea08     libmpg123:layer3.obj
 0002:00010a68       ??_C@_0GC@DPMLDIIH@?$FL?4?4?2?4?4?2?4?4?2deps?2mpg123?2src?2libmpg@ 1006ea68     libmpg123:layer3.obj
 0002:00010ad0       ??_C@_0FA@HPFIJPEC@?$FL?4?4?2?4?4?2?4?4?2deps?2mpg123?2src?2libmpg@ 1006ead0     libmpg123:layer3.obj
 0002:00010b20       ??_C@_0CG@FEBNNJJD@Note?3?5Xing?1Lame?1Info?5header?5dete@ 1006eb20     libmpg123:parse.obj
 0002:00010b48       ??_C@_0EC@KFGMJMIO@Note?3?5Ignoring?5Xing?5frames?5becau@ 1006eb48     libmpg123:parse.obj
 0002:00010b8c       ??_C@_0BI@HIACKKG@Note?3?5Xing?3?5?$CFlu?5frames?6?$AA@ 1006eb8c     libmpg123:parse.obj
 0002:00010ba8       ??_C@_0EB@EEAHJKFO@Note?3?5Ignoring?5Xing?5bytes?5becaus@ 1006eba8     libmpg123:parse.obj
 0002:00010bf0       ??_C@_0EN@IAAKJFKG@Note?3?5Xing?5stream?5size?5?$CFlu?5diffe@ 1006ebf0     libmpg123:parse.obj
 0002:00010c40       ??_C@_0GG@JMOOOEJL@Warning?3?5Xing?5stream?5size?5off?5by@ 1006ec40     libmpg123:parse.obj
 0002:00010ca8       ??_C@_0BH@BIFBKPKK@Note?3?5Xing?3?5?$CFlu?5bytes?6?$AA@ 1006eca8     libmpg123:parse.obj
 0002:00010cc0       ??_C@_0BL@OJACMGJP@Note?3?5Xing?3?5quality?5?$DN?5?$CFlu?6?$AA@ 1006ecc0     libmpg123:parse.obj
 0002:00010cdc       ??_C@_0BJ@IEIKGDMO@Note?3?5Info?3?5Encoder?3?5?$CFs?6?$AA@ 1006ecdc     libmpg123:parse.obj
 0002:00010cf8       ??_C@_04HCDKCHCB@LAME?$AA@ 1006ecf8     libmpg123:parse.obj
 0002:00010d00       ??_C@_07MHOJIJIK@?$CFu?4?$CFu?$CFs?$AA@ 1006ed00     libmpg123:parse.obj
 0002:00010d08       ??_C@_0EC@JPDBPJCK@Note?3?5Info?3?5Old?5LAME?5detected?0?5u@ 1006ed08     libmpg123:parse.obj
 0002:00010d4c       ??_C@_0CM@JFPLNMFH@Note?3?5Info?3?5Cannot?5determine?5LAM@ 1006ed4c     libmpg123:parse.obj
 0002:00010d78       ??_C@_0BE@MKDNHGDN@Note?3?5Info?3?5rev?5?$CFu?6?$AA@ 1006ed78     libmpg123:parse.obj
 0002:00010d8c       ??_C@_0BJ@PLMCCNHP@Note?3?5Info?3?5vbr?5mode?5?$CFu?6?$AA@ 1006ed8c     libmpg123:parse.obj
 0002:00010da8       ??_C@_0CK@LAJHGKOA@Note?3?5Info?3?5peak?5?$DN?5?$CFf?5?$CII?5won?8t?5u@ 1006eda8     libmpg123:parse.obj
 0002:00010dd4       ??_C@_0CD@EHPANFLH@Note?3?5Info?3?5Radio?5Gain?5?$DN?5?$CF03?41fd@ 1006edd4     libmpg123:parse.obj
 0002:00010df8       ??_C@_0CI@CGOOAFPL@Note?3?5Info?3?5Audiophile?5Gain?5?$DN?5?$CF0@ 1006edf8     libmpg123:parse.obj
 0002:00010e20       ??_C@_0BL@EDBCALD@Note?3?5Info?3?5ABR?5rate?5?$DN?5?$CFu?6?$AA@ 1006ee20     libmpg123:parse.obj
 0002:00010e3c       ??_C@_0CI@KDLOPFBJ@Note?3?5Encoder?5delay?5?$DN?5?$CFi?$DL?5paddin@ 1006ee3c     libmpg123:parse.obj
 0002:00010e68       ??_C@_0FN@OAHCNBGM@?6Warning?3?5Encountered?5more?5data?5@ 1006ee68     libmpg123:parse.obj
 0002:00010ec8       ??_C@_0IJ@FDDNNNJD@?$FL?4?4?2?4?4?2?4?4?2deps?2mpg123?2src?2libmpg@ 1006eec8     libmpg123:parse.obj
 0002:00010f58       ??_C@_0ID@JMOJIHI@?$FL?4?4?2?4?4?2?4?4?2deps?2mpg123?2src?2libmpg@ 1006ef58     libmpg123:parse.obj
 0002:00010fdc       ??_C@_0CC@LODMHIBJ@Note?3?5free?5format?5frame?5size?5?$CFli@ 1006efdc     libmpg123:parse.obj
 0002:00011000       ??_C@_0HI@COMHHAPJ@?$FL?4?4?2?4?4?2?4?4?2deps?2mpg123?2src?2libmpg@ 1006f000     libmpg123:parse.obj
 0002:00011078       ??_C@_0GD@NIFMPFOO@?$FL?4?4?2?4?4?2?4?4?2deps?2mpg123?2src?2libmpg@ 1006f078     libmpg123:parse.obj
 0002:000110e0       ??_C@_0EP@PCFLPLND@?$FL?4?4?2?4?4?2?4?4?2deps?2mpg123?2src?2libmpg@ 1006f0e0     libmpg123:parse.obj
 0002:00011130       ??_C@_0EF@IJGCBLOH@?$FL?4?4?2?4?4?2?4?4?2deps?2mpg123?2src?2libmpg@ 1006f130     libmpg123:parse.obj
 0002:00011178       ??_C@_0EK@NMPEOGCI@?$FL?4?4?2?4?4?2?4?4?2deps?2mpg123?2src?2libmpg@ 1006f178     libmpg123:parse.obj
 0002:000111c8       ??_C@_0GO@IMJNMHHM@?$FL?4?4?2?4?4?2?4?4?2deps?2mpg123?2src?2libmpg@ 1006f1c8     libmpg123:parse.obj
 0002:00011238       ??_C@_0FC@GJINCLAO@?$FL?4?4?2?4?4?2?4?4?2deps?2mpg123?2src?2libmpg@ 1006f238     libmpg123:parse.obj
 0002:0001128c       ??_C@_0CH@GCENMFDO@Note?3?5Junk?5at?5the?5beginning?5?$CI0x?$CF@ 1006f28c     libmpg123:parse.obj
 0002:000112b4       ??_C@_0CB@ECCJEMLC@Note?3?5Looks?5like?5a?5RIFF?5header?4?6@ 1006f2b4     libmpg123:parse.obj
 0002:000112d8       ??_C@_0BM@CBJLOCCO@Note?3?5Skipped?5RIFF?5header?$CB?6?$AA@ 1006f2d8     libmpg123:parse.obj
 0002:000112f8       ??_C@_0HH@JENINFMK@?$FL?4?4?2?4?4?2?4?4?2deps?2mpg123?2src?2libmpg@ 1006f2f8     libmpg123:parse.obj
 0002:00011370       ??_C@_0BK@DLCCMMDH@Note?3?5Skipped?5ID3v1?5tag?4?6?$AA@ 1006f370     libmpg123:parse.obj
 0002:0001138c       ??_C@_0DI@LKIBEBJA@Note?3?5Illegal?5Audio?9MPEG?9Header?5@ 1006f38c     libmpg123:parse.obj
 0002:000113c4       ??_C@_0CB@KNBDGNJH@Note?3?5Could?5be?5a?5BMP?5album?5art?4?6@ 1006f3c4     libmpg123:parse.obj
 0002:000113e8       ??_C@_0BL@OELPIEFH@Note?3?5Trying?5to?5resync?4?4?4?6?$AA@ 1006f3e8     libmpg123:parse.obj
 0002:00011404       ??_C@_0DC@PEOGLKLI@Note?3?5Hit?5end?5of?5?$CIavailable?$CJ?5dat@ 1006f404     libmpg123:parse.obj
 0002:00011438       ??_C@_0CD@DFPHHCBE@Note?3?5Skipped?5?$CFli?5bytes?5in?5input@ 1006f438     libmpg123:parse.obj
 0002:00011460       ??_C@_0KC@HHJINAA@?$FL?4?4?2?4?4?2?4?4?2deps?2mpg123?2src?2libmpg@ 1006f460     libmpg123:parse.obj
 0002:00011508       ??_C@_0FE@BNICBBHH@?$FL?4?4?2?4?4?2?4?4?2deps?2mpg123?2src?2libmpg@ 1006f508     libmpg123:parse.obj
 0002:00011560       ??_C@_0GC@CDPCAPGI@?$FL?4?4?2?4?4?2?4?4?2deps?2mpg123?2src?2libmpg@ 1006f560     libmpg123:tabinit.obj
 0002:000115c8       ??_C@_0EK@DIGBCNPM@?$FL?4?4?2?4?4?2?4?4?2deps?2mpg123?2src?2libmpg@ 1006f5c8     libmpg123:tabinit.obj
 0002:00011614       __real@00000000            1006f614     libmpg123:layer3.obj
 0002:00011618       __real@0000000000000000    1006f618     libmpg123:tabinit.obj
 0002:00011620       __real@1e3ce508            1006f620     libmp3lame:quantize.obj
 0002:00011624       __real@2433c3fe            1006f624     libmp3lame:encoder.obj
 0002:00011628       __real@25800000            1006f628     libmp3lame:quantize_pvt.obj
 0002:0001162c       __real@283424dc            1006f62c     libmp3lame:quantize_pvt.obj
 0002:00011630       __real@2b8cbccc            1006f630     libmp3lame:quantize.obj
 0002:00011634       __real@38000000            1006f634     libmpg123:synth_real.obj
 0002:00011638       __real@3841039d428a8b8f    1006f638     libmp3lame:gain_analysis.obj
 0002:00011640       __real@38800000            1006f640     libmp3lame:util.obj
 0002:00011644       __real@3a800000            1006f644     libmp3lame:psymodel.obj
 0002:00011648       __real@3b000000            1006f648     libmp3lame:util.obj
 0002:0001164c       __real@3b727b46            1006f64c     libmp3lame:newmdct.obj
 0002:00011650       __real@3bc79ca10c924223    1006f650     libmp3lame:lame.obj
 0002:00011658       __real@3c68a11d            1006f658     libmp3lame:newmdct.obj
 0002:0001165c       __real@3c800000            1006f65c     libmp3lame:psymodel.obj
 0002:00011660       __real@3cb0000000000000    1006f660     libmp3lame:quantize_pvt.obj
 0002:00011668       __real@3ccccccd            1006f668     libmp3lame:quantize_pvt.obj
 0002:0001166c       __real@3d000000            1006f66c     libmp3lame:encoder.obj
 0002:00011670       __real@3d27cb87            1006f670     libmp3lame:newmdct.obj
 0002:00011674       __real@3d4ccccd            1006f674     libmp3lame:quantize_pvt.obj
 0002:00011678       __real@3d71979980000000    1006f678     libmp3lame:quantize_pvt.obj
 0002:00011680       __real@3d719799812dea11    1006f680     libmp3lame:newmdct.obj
 0002:00011688       __real@3da3bc67458a22d1    1006f688     libmp3lame:psymodel.obj
 0002:00011690       __real@3db4f934c242e570    1006f690     libmp3lame:newmdct.obj
 0002:00011698       __real@3db4f934c242e573    1006f698     libmp3lame:newmdct.obj
 0002:000116a0       __real@3db6c2786cb19c4f    1006f6a0     libmp3lame:newmdct.obj
 0002:000116a8       __real@3dc1b01d            1006f6a8     libmp3lame:newmdct.obj
 0002:000116ac       __real@3dcccccd            1006f6ac     libmp3lame:util.obj
 0002:000116b0       __real@3dd4e054            1006f6b0     libmp3lame:encoder.obj
 0002:000116b8       __real@3ddb7cdfd9d7bdbb    1006f6b8     libmp3lame:gain_analysis.obj
 0002:000116c0       __real@3e06cfea            1006f6c0     libmp3lame:newmdct.obj
 0002:000116c8       __real@3e112e0be826d695    1006f6c8     libmp3lame:util.obj
 0002:000116d0       __real@3e1fa82f            1006f6d0     libmp3lame:encoder.obj
 0002:000116d4       __real@3e31d0d4            1006f6d4     libmp3lame:newmdct.obj
 0002:000116d8       __real@3e3a4774            1006f6d8     libmp3lame:newmdct.obj
 0002:000116dc       __real@3e41bf59            1006f6dc     libmp3lame:encoder.obj
 0002:000116e0       __real@3e5d6cf8            1006f6e0     libmp3lame:encoder.obj
 0002:000116e4       __real@3e6f7c46            1006f6e4     libmp3lame:encoder.obj
 0002:000116e8       __real@3e800000            1006f6e8     libmp3lame:psymodel.obj
 0002:000116ec       __real@3ea07302            1006f6ec     libmp3lame:newmdct.obj
 0002:000116f0       __real@3eaf1d44            1006f6f0     libmp3lame:newmdct.obj
 0002:000116f8       __real@3eb0c6f7a0000000    1006f6f8     libmp3lame:lame.obj
 0002:00011700       __real@3ed413cd            1006f700     libmp3lame:newmdct.obj
 0002:00011704       __real@3ef186da            1006f704     libmp3lame:newmdct.obj
 0002:00011708       __real@3f000000            1006f708     libmp3lame:newmdct.obj
 0002:00011710       __real@3f00000000000000    1006f710     libmpg123:tabinit.obj
 0002:00011718       __real@3f012a30            1006f718     libmp3lame:encoder.obj
 0002:0001171c       __real@3f03b5fe            1006f71c     libmp3lame:newmdct.obj
 0002:00011720       __real@3f1837b4            1006f720     libmp3lame:takehiro.obj
 0002:00011728       __real@3f1a36e2eb1c432d    1006f728     libmp3lame:util.obj
 0002:00011730       __real@3f248dbb            1006f730     libmp3lame:newmdct.obj
 0002:00011734       __real@3f3504f3            1006f734     libmp3lame:quantize.obj
 0002:00011738       __real@3f41bf48            1006f738     libmp3lame:encoder.obj
 0002:00011740       __real@3f43a92a30553261    1006f740     libmp3lame:util.obj
 0002:00011748       __real@3f441b7d            1006f748     libmp3lame:newmdct.obj
 0002:0001174c       __real@3f446f8b            1006f74c     libmp3lame:newmdct.obj
 0002:00011750       __real@3f447ae147ae147b    1006f750     libmp3lame:encoder.obj
 0002:00011758       __real@3f50624dd2f1a9fc    1006f758     libmp3lame:util.obj
 0002:00011760       __real@3f5b84a8            1006f760     libmp3lame:newmdct.obj
 0002:00011764       __real@3f5db3d7            1006f764     libmp3lame:newmdct.obj
 0002:00011768       __real@3f61b9d8            1006f768     libmp3lame:newmdct.obj
 0002:0001176c       __real@3f666666            1006f76c     libmp3lame:quantize.obj
 0002:00011770       __real@3f6f7c46            1006f770     libmp3lame:encoder.obj
 0002:00011778       __real@3f70000000000000    1006f778     libmpg123:frame.obj
 0002:00011780       __real@3f708fb2            1006f780     libmp3lame:newmdct.obj
 0002:00011784       __real@3f731add            1006f784     libmp3lame:newmdct.obj
 0002:00011788       __real@3f7bba81            1006f788     libmp3lame:newmdct.obj
 0002:0001178c       __real@3f7c1c5c            1006f78c     libmp3lame:newmdct.obj
 0002:00011790       __real@3f7eda41            1006f790     libmp3lame:newmdct.obj
 0002:00011794       __real@3f7fc8fd            1006f794     libmp3lame:newmdct.obj
 0002:00011798       __real@3f7fdf3b            1006f798     libmp3lame:util.obj
 0002:0001179c       __real@3f7ff965            1006f79c     libmp3lame:newmdct.obj
 0002:000117a0       __real@3f7fff8d            1006f7a0     libmp3lame:newmdct.obj
 0002:000117a4       __real@3f800000            1006f7a4     libmpg123:frame.obj
 0002:000117a8       __real@3f801062            1006f7a8     libmp3lame:util.obj
 0002:000117b0       __real@3f847ae147ae147b    1006f7b0     libmp3lame:psymodel.obj
 0002:000117b8       __real@3f8bafff            1006f7b8     libmp3lame:newmdct.obj
 0002:000117c0       __real@3f964bf964bf964c    1006f7c0     libmp3lame:lame.obj
 0002:000117c8       __real@3f9db22d0e560419    1006f7c8     libmp3lame:quantize.obj
 0002:000117d0       __real@3fa11114663de4a6    1006f7d0     libmp3lame:quantize_pvt.obj
 0002:000117d8       __real@3fa47ae147ae147b    1006f7d8     libmp3lame:util.obj
 0002:000117e0       __real@3fa5fed7            1006f7e0     libmp3lame:quantize.obj
 0002:000117e8       __real@3fa657184ae74487    1006f7e8     libmpg123:layer3.obj
 0002:000117f0       __real@3fa6d017            1006f7f0     libmp3lame:newmdct.obj
 0002:000117f8       __real@3fa999999999999a    1006f7f8     libmp3lame:quantize.obj
 0002:00011800       __real@3fa99999999999a0    1006f800     libmp3lame:gain_analysis.obj
 0002:00011808       __real@3fb1eb851eb851ec    1006f808     libmp3lame:quantize.obj
 0002:00011810       __real@3fb3333333333333    1006f810     libmp3lame:encoder.obj
 0002:00011818       __real@3fb47ae147ae147b    1006f818     libmp3lame:util.obj
 0002:00011820       __real@3fb999999999999a    1006f820     libmp3lame:reservoir.obj
 0002:00011828       __real@3fc0c152382d7365    1006f828     libmpg123:layer3.obj
 0002:00011830       __real@3fc1eb851eb851ec    1006f830     libmp3lame:quantize.obj
 0002:00011838       __real@3fc3333333333333    1006f838     libmp3lame:quantize.obj
 0002:00011840       __real@3fc657184ae74487    1006f840     libmpg123:layer3.obj
 0002:00011848       __real@3fc70a3d80000000    1006f848     libmp3lame:psymodel.obj
 0002:00011850       __real@3fc8eb75            1006f850     libmp3lame:newmdct.obj
 0002:00011858       __real@3fc999999999999a    1006f858     libmp3lame:quantize.obj
 0002:00011860       __real@3fca3d71            1006f860     libmp3lame:psymodel.obj
 0002:00011868       __real@3fcd791c5f88dbef    1006f868     libmp3lame:psymodel.obj
 0002:00011870       __real@3fd3333333333333    1006f870     libmp3lame:psymodel.obj
 0002:00011878       __real@3fd34413509f79fe    1006f878     libmp3lame:psymodel.obj
 0002:00011880       __real@3fd51eb851eb851f    1006f880     libmp3lame:quantize_pvt.obj
 0002:00011888       __real@3fd5c28f5c28f5c3    1006f888     libmp3lame:psymodel.obj
 0002:00011890       __real@3fd657184ae74487    1006f890     libmpg123:layer3.obj
 0002:00011898       __real@3fd70a3d80000000    1006f898     libmp3lame:psymodel.obj
 0002:000118a0       __real@3fd744fd            1006f8a0     libmp3lame:quantize.obj
 0002:000118a8       __real@3fd78d4fdf3b645a    1006f8a8     libmp3lame:quantize.obj
 0002:000118b0       __real@3fd9999a            1006f8b0     libmp3lame:psymodel.obj
 0002:000118b8       __real@3fdae147ae147ae1    1006f8b8     libmp3lame:util.obj
 0002:000118c0       __real@3fde5604189374bc    1006f8c0     libmp3lame:psymodel.obj
 0002:000118c8       __real@3fe0000000000000    1006f8c8     libmp3lame:newmdct.obj
 0002:000118d0       __real@3fe0c152382d7365    1006f8d0     libmpg123:layer3.obj
 0002:000118d8       __real@3fe2000000000000    1006f8d8     libmp3lame:psymodel.obj
 0002:000118e0       __real@3fe3333333333333    1006f8e0     libmp3lame:util.obj
 0002:000118e8       __real@3fe4395810624dd3    1006f8e8     libmp3lame:quantize.obj
 0002:000118f0       __real@3fe44e006a3ab199    1006f8f0     libmp3lame:takehiro.obj
 0002:000118f8       __real@3fe526403b597262    1006f8f8     libmp3lame:psymodel.obj
 0002:00011900       __real@3fe8000000000000    1006f900     libmp3lame:lame.obj
 0002:00011908       __real@3fe851eb851eb852    1006f908     libmp3lame:util.obj
 0002:00011910       __real@3fe999999999999a    1006f910     libmp3lame:psymodel.obj
 0002:00011918       __real@3febb67ae8584cab    1006f918     libmp3lame:newmdct.obj
 0002:00011920       __real@3feccccccccccccd    1006f920     libmp3lame:reservoir.obj
 0002:00011928       __real@3fed99999999999a    1006f928     libmp3lame:encoder.obj
 0002:00011930       __real@3fedc28f5c28f5c3    1006f930     libmp3lame:quantize.obj
 0002:00011938       __real@3fee666666666666    1006f938     libmp3lame:quantize.obj
 0002:00011940       __real@3fef0a3d70a3d70a    1006f940     libmp3lame:lame.obj
 0002:00011948       __real@3ff0000000000000    1006f948     libmpg123:parse.obj
 0002:00011950       __real@3ff0c152382d7365    1006f950     libmpg123:layer3.obj
 0002:00011958       __real@3ff170a3d70a3d71    1006f958     libmp3lame:quantize.obj
 0002:00011960       __real@3ff199999999999a    1006f960     libmp3lame:presets.obj
 0002:00011968       __real@3ff4000000000000    1006f968     libmp3lame:psymodel.obj
 0002:00011970       __real@3ff47ae147ae147b    1006f970     libmp3lame:quantize.obj
 0002:00011978       __real@3ff5555555555555    1006f978     libmpg123:layer3.obj
 0002:00011980       __real@3ff5e2be            1006f980     libmp3lame:newmdct.obj
 0002:00011988       __real@3ff6666666666666    1006f988     libmp3lame:quantize.obj
 0002:00011990       __real@3ff6a09e667f3bcd    1006f990     libmp3lame:fft.obj
 0002:00011998       __real@3ff8000000000000    1006f998     libmp3lame:psymodel.obj
 0002:000119a0       __real@3ff921fb54442d18    1006f9a0     libmp3lame:lame.obj
 0002:000119a8       __real@3ffbecde5da115a9    1006f9a8     libmpg123:layer3.obj
 0002:000119b0       __real@3ffeb7c166fdfe39    1006f9b0     libmpg123:layer3.obj
 0002:000119b8       __real@40000000            1006f9b8     libmp3lame:quantize_pvt.obj
 0002:000119c0       __real@4000000000000000    1006f9c0     libmpg123:tabinit.obj
 0002:000119c8       __real@400226c3bcdbe7ae    1006f9c8     libmpg123:layer3.obj
 0002:000119d0       __real@4002666666666666    1006f9d0     libmp3lame:psymodel.obj
 0002:000119d8       __real@40038c35418a5bf6    1006f9d8     libmpg123:layer3.obj
 0002:000119e0       __real@4004000000000000    1006f9e0     libmp3lame:psymodel.obj
 0002:000119e8       __real@40047ae147ae147b    1006f9e8     libmp3lame:quantize.obj
 0002:000119f0       __real@4008000000000000    1006f9f0     libmpg123:layer2.obj
 0002:000119f8       __real@4008151824c7587e    1006f9f8     libmp3lame:quantize_pvt.obj
 0002:00011a00       __real@4008cccccccccccd    1006fa00     libmp3lame:psymodel.obj
 0002:00011a08       __real@400921fb54442d18    1006fa08     libmpg123:tabinit.obj
 0002:00011a10       __real@400b333333333333    1006fa10     libmp3lame:util.obj
 0002:00011a18       __real@400c000000000000    1006fa18     libmp3lame:util.obj
 0002:00011a20       __real@400d1eb851eb851f    1006fa20     libmp3lame:util.obj
 0002:00011a28       __real@4010000000000000    1006fa28     libmp3lame:util.obj
 0002:00011a30       __real@4014000000000000    1006fa30     libmp3lame:presets.obj
 0002:00011a38       __real@4016000000000000    1006fa38     libmp3lame:quantize.obj
 0002:00011a40       __real@4018000000000000    1006fa40     libmp3lame:util.obj
 0002:00011a48       __real@401a827a            1006fa48     libmp3lame:newmdct.obj
 0002:00011a50       __real@401b333333333333    1006fa50     libmp3lame:util.obj
 0002:00011a58       __real@401c000000000000    1006fa58     libmp3lame:psymodel.obj
 0002:00011a60       __real@401e000000000000    1006fa60     libmp3lame:psymodel.obj
 0002:00011a68       __real@40200000            1006fa68     libmp3lame:psymodel.obj
 0002:00011a70       __real@4020000000000000    1006fa70     libmp3lame:psymodel.obj
 0002:00011a78       __real@4021666666666666    1006fa78     libmp3lame:util.obj
 0002:00011a80       __real@4023ff7ced916873    1006fa80     libmp3lame:set_get.obj
 0002:00011a88       __real@4024000000000000    1006fa88     libmp3lame:psymodel.obj
 0002:00011a90       __real@4026000000000000    1006fa90     libmp3lame:quantize.obj
 0002:00011a98       __real@4028000000000000    1006fa98     libmpg123:layer3.obj
 0002:00011aa0       __real@402a000000000000    1006faa0     libmp3lame:quantize.obj
 0002:00011aa8       __real@402f000000000000    1006faa8     libmp3lame:psymodel.obj
 0002:00011ab0       __real@402f9f6e6106ab15    1006fab0     libmp3lame:psymodel.obj
 0002:00011ab8       __real@4031800000000000    1006fab8     libmp3lame:psymodel.obj
 0002:00011ac0       __real@4034000000000000    1006fac0     libmp3lame:lame.obj
 0002:00011ac8       __real@4036000000000000    1006fac8     libmp3lame:quantize.obj
 0002:00011ad0       __real@4037069e2aa2aa5c    1006fad0     libmp3lame:psymodel.obj
 0002:00011ad8       __real@4038000000000000    1006fad8     libmpg123:layer3.obj
 0002:00011ae0       __real@403e000000000000    1006fae0     libmp3lame:psymodel.obj
 0002:00011ae8       __real@403f000000000000    1006fae8     libmp3lame:lame.obj
 0002:00011af0       __real@403ffae147ae147b    1006faf0     libmp3lame:encoder.obj
 0002:00011af8       __real@40400000            1006faf8     libmp3lame:psymodel.obj
 0002:00011b00       __real@4042000000000000    1006fb00     libmpg123:layer3.obj
 0002:00011b08       __real@404afb69            1006fb08     libmp3lame:newmdct.obj
 0002:00011b10       __real@404c200000000000    1006fb10     libmp3lame:util.obj
 0002:00011b18       __real@4052000000000000    1006fb18     libmpg123:layer3.obj
 0002:00011b20       __real@4059000000000000    1006fb20     libmpg123:frame.obj
 0002:00011b28       __real@405a3d71            1006fb28     libmp3lame:util.obj
 0002:00011b30       __real@405fc00000000000    1006fb30     libmpg123:tabinit.obj
 0002:00011b38       __real@40600000            1006fb38     libmp3lame:psymodel.obj
 0002:00011b40       __real@4068000000000000    1006fb40     libmp3lame:psymodel.obj
 0002:00011b48       __real@406fe00000000000    1006fb48     libmpg123:tabinit.obj
 0002:00011b50       __real@4070000000000000    1006fb50     libmpg123:tabinit.obj
 0002:00011b58       __real@4072c00000000000    1006fb58     libmp3lame:quantize.obj
 0002:00011b60       __real@4074000000000000    1006fb60     libmp3lame:presets.obj
 0002:00011b68       __real@40800000            1006fb68     libmp3lame:util.obj
 0002:00011b70       __real@4082000000000000    1006fb70     libmp3lame:psymodel.obj
 0002:00011b78       __real@4085e00000000000    1006fb78     libmp3lame:quantize_pvt.obj
 0002:00011b80       __real@408ccccd            1006fb80     libmp3lame:psymodel.obj
 0002:00011b88       __real@408f400000000000    1006fb88     libmp3lame:gain_analysis.obj
 0002:00011b90       __real@40900000            1006fb90     libmp3lame:psymodel.obj
 0002:00011b94       __real@409057b9            1006fb94     libmp3lame:newmdct.obj
 0002:00011b98       __real@40c00000            1006fb98     libmp3lame:psymodel.obj
 0002:00011ba0       __real@40cf400000000000    1006fba0     libmp3lame:lame.obj
 0002:00011ba8       __real@40d30b0000000000    1006fba8     libmp3lame:lame.obj
 0002:00011bb0       __real@40d4ff0000000000    1006fbb0     libmp3lame:lame.obj
 0002:00011bb8       __real@40dfffc000000000    1006fbb8     libmpg123:synth_8bit.obj
 0002:00011bc0       __real@40e7700000000000    1006fbc0     libmpg123:parse.obj
 0002:00011bc8       __real@40f2000000000000    1006fbc8     node_mpg123.obj
 0002:00011bd0       __real@40f3106b            1006fbd0     libmp3lame:newmdct.obj
 0002:00011bd8       __real@4101940000000000    1006fbd8     libmpg123:parse.obj
 0002:00011be0       __real@410f400000000000    1006fbe0     libmp3lame:psymodel.obj
 0002:00011be8       __real@41100000            1006fbe8     libmp3lame:util.obj
 0002:00011bec       __real@411ffbe7            1006fbec     libmp3lame:set_get.obj
 0002:00011bf0       __real@41200000            1006fbf0     libmp3lame:psymodel.obj
 0002:00011bf8       __real@412f400000000000    1006fbf8     libmp3lame:psymodel.obj
 0002:00011c00       __real@41300000            1006fc00     libmp3lame:psymodel.obj
 0002:00011c04       __real@41400000            1006fc04     libmp3lame:psymodel.obj
 0002:00011c08       __real@41500000            1006fc08     libmp3lame:psymodel.obj
 0002:00011c10       __real@4160000000000000    1006fc10     libmp3lame:vbrquantize.obj
 0002:00011c18       __real@41800000            1006fc18     libmp3lame:psymodel.obj
 0002:00011c1c       __real@4180cccd            1006fc1c     libmp3lame:util.obj
 0002:00011c20       __real@41a00000            1006fc20     libmp3lame:psymodel.obj
 0002:00011c24       __real@41b73ae9            1006fc24     libmp3lame:newmdct.obj
 0002:00011c28       __real@41c00000            1006fc28     libmp3lame:util.obj
 0002:00011c2c       __real@41c80000            1006fc2c     libmp3lame:psymodel.obj
 0002:00011c30       __real@41dfffffffc00000    1006fc30     libmpg123:synth_s32.obj
 0002:00011c38       __real@41efffffffe00000    1006fc38     libmp3lame:id3tag.obj
 0002:00011c40       __real@41f80000            1006fc40     libmp3lame:util.obj
 0002:00011c44       __real@42000000            1006fc44     libmp3lame:lame.obj
 0002:00011c48       __real@42800000            1006fc48     libmp3lame:lame.obj
 0002:00011c4c       __real@4281a3d7            1006fc4c     libmp3lame:gain_analysis.obj
 0002:00011c50       __real@42b49e12            1006fc50     libmp3lame:quantize_pvt.obj
 0002:00011c54       __real@42bda61e            1006fc54     libmp3lame:quantize_pvt.obj
 0002:00011c58       __real@42c80000            1006fc58     libmp3lame:gain_analysis.obj
 0002:00011c60       __real@4330000080000000    1006fc60     libmpg123:synth.obj
 0002:00011c68       __real@438c875c            1006fc68     libmp3lame:psymodel.obj
 0002:00011c6c       __real@439a88f6            1006fc6c     libmp3lame:psymodel.obj
 0002:00011c70       __real@43c00000            1006fc70     libmp3lame:quantize_pvt.obj
 0002:00011c74       __real@442f0000            1006fc74     libmp3lame:quantize.obj
 0002:00011c78       __real@447a0000            1006fc78     libmp3lame:util.obj
 0002:00011c7c       __real@44900000            1006fc7c     libmp3lame:quantize_pvt.obj
 0002:00011c80       __real@45552000            1006fc80     libmp3lame:util.obj
 0002:00011c84       __real@45f00000            1006fc84     libmp3lame:vbrquantize.obj
 0002:00011c88       __real@46003800            1006fc88     libmp3lame:vbrquantize.obj
 0002:00011c8c       __real@46fffe00            1006fc8c     libmp3lame:lame.obj
 0002:00011c90       __real@471c4000            1006fc90     libmp3lame:psymodel.obj
 0002:00011c94       __real@47800000            1006fc94     libmpg123:synth_s32.obj
 0002:00011c98       __real@47efffffe0000000    1006fc98     libmp3lame:psymodel.obj
 0002:00011ca0       __real@501502f9            1006fca0     libmp3lame:psymodel.obj
 0002:00011ca4       __real@58635fa9            1006fca4     libmp3lame:quantize_pvt.obj
 0002:00011ca8       __real@bb727b46            1006fca8     libmp3lame:newmdct.obj
 0002:00011cac       __real@bc68a11d            1006fcac     libmp3lame:newmdct.obj
 0002:00011cb0       __real@bd27cb87            1006fcb0     libmp3lame:newmdct.obj
 0002:00011cb4       __real@bdc1b01d            1006fcb4     libmp3lame:newmdct.obj
 0002:00011cb8       __real@be31d0d4            1006fcb8     libmp3lame:newmdct.obj
 0002:00011cbc       __real@be3a4774            1006fcbc     libmp3lame:newmdct.obj
 0002:00011cc0       __real@bea07302            1006fcc0     libmp3lame:newmdct.obj
 0002:00011cc4       __real@bef186da            1006fcc4     libmp3lame:newmdct.obj
 0002:00011cc8       __real@bf03b5fe            1006fcc8     libmp3lame:newmdct.obj
 0002:00011ccc       __real@bf441b7d            1006fccc     libmp3lame:newmdct.obj
 0002:00011cd0       __real@bf800000            1006fcd0     libmp3lame:util.obj
 0002:00011cd8       __real@bfa999999999999a    1006fcd8     libmp3lame:quantize.obj
 0002:00011ce0       __real@bfb999999999999a    1006fce0     libmp3lame:quantize.obj
 0002:00011ce8       __real@bfc3333333333333    1006fce8     libmp3lame:util.obj
 0002:00011cf0       __real@bfc8000000000000    1006fcf0     libmp3lame:quantize_pvt.obj
 0002:00011cf8       __real@bfd0000000000000    1006fcf8     libmpg123:layer3.obj
 0002:00011d00       __real@bfd3333333333333    1006fd00     libmp3lame:util.obj
 0002:00011d08       __real@bfe0000000000000    1006fd08     libmpg123:tabinit.obj
 0002:00011d10       __real@bfe3333333333333    1006fd10     libmp3lame:util.obj
 0002:00011d18       __real@bfe999999999999a    1006fd18     libmp3lame:util.obj
 0002:00011d20       __real@bff0000000000000    1006fd20     libmpg123:frame.obj
 0002:00011d28       __real@bff3333333333333    1006fd28     libmp3lame:psymodel.obj
 0002:00011d30       __real@bff6a09e667f3bcd    1006fd30     libmp3lame:newmdct.obj
 0002:00011d38       __real@c000000000000000    1006fd38     libmp3lame:quantize_pvt.obj
 0002:00011d40       __real@c0026bb1bbb55516    1006fd40     libmp3lame:psymodel.obj
 0002:00011d48       __real@c0134413509f79fe    1006fd48     libmp3lame:psymodel.obj
 0002:00011d50       __real@c020800000000000    1006fd50     libmp3lame:psymodel.obj
 0002:00011d58       __real@c024000000000000    1006fd58     libmp3lame:lame.obj
 0002:00011d60       __real@c04e000000000000    1006fd60     libmp3lame:psymodel.obj
 0002:00011d68       __real@c0b99293            1006fd68     libmp3lame:vbrquantize.obj
 0002:00011d70       __real@c0d8064000000000    1006fd70     libmp3lame:lame.obj
 0002:00011d78       __real@c0eccccd            1006fd78     libmp3lame:psymodel.obj
 0002:00011d7c       __real@c1040000            1006fd7c     libmp3lame:psymodel.obj
 0002:00011d80       __real@c1a00000            1006fd80     libmp3lame:quantize_pvt.obj
 0002:00011d84       __real@c6c03200            1006fd84     libmp3lame:gain_analysis.obj
 0002:00011d88       __real@c7000000            1006fd88     libmpg123:synth_8bit.obj
 0002:00011d8c       __real@cf000000            1006fd8c     libmpg123:synth_s32.obj
 0002:00011d90       __xmm@000000000000000041400000c1200000 1006fd90     libmp3lame:presets.obj
 0002:00011da0       __xmm@00000000000000010000000100000001 1006fda0     libmpg123:layer2.obj
 0002:00011db0       __xmm@00000000000000020000000200000000 1006fdb0     libmpg123:layer2.obj
 0002:00011dc0       __xmm@00000000000000020000000200000002 1006fdc0     libmpg123:layer2.obj
 0002:00011dd0       __xmm@00000000000000030000000300000000 1006fdd0     libmpg123:layer2.obj
 0002:00011de0       __xmm@00000000000000030000000300000003 1006fde0     libmpg123:layer2.obj
 0002:00011df0       __xmm@00000000000000090000000900000008 1006fdf0     libmp3lame:presets.obj
 0002:00011e00       __xmm@000000003f80000041200000c1000000 1006fe00     libmp3lame:presets.obj
 0002:00011e10       __xmm@000000004000000041100000c0c00000 1006fe10     libmp3lame:presets.obj
 0002:00011e20       __xmm@000000004040000040e00000c0800000 1006fe20     libmp3lame:presets.obj
 0002:00011e30       __xmm@000000004060000040a00000c0000000 1006fe30     libmp3lame:presets.obj
 0002:00011e40       __xmm@00000001000000010000000000000000 1006fe40     libmpg123:layer2.obj
 0002:00011e50       __xmm@00000001000000010000000100000001 1006fe50     libmpg123:layer2.obj
 0002:00011e60       __xmm@00000001000000080000000100000004 1006fe60     libmpg123:layer3.obj
 0002:00011e70       __xmm@00000002000000020000000200000000 1006fe70     libmpg123:layer2.obj
 0002:00011e80       __xmm@00000002000000190000001800000000 1006fe80     libmpg123:layer2.obj
 0002:00011e90       __xmm@00000003000000020000000100000000 1006fe90     libmpg123:tabinit.obj
 0002:00011ea0       __xmm@00000003000000030000000300000000 1006fea0     libmpg123:layer2.obj
 0002:00011eb0       __xmm@00000003000000050000000900000002 1006feb0     libmpg123:layer3.obj
 0002:00011ec0       __xmm@00000009000000090000001000000001 1006fec0     libmp3lame:presets.obj
 0002:00011ed0       __xmm@00000009000000090000001800000001 1006fed0     libmp3lame:presets.obj
 0002:00011ee0       __xmm@00000009000000090000002000000001 1006fee0     libmp3lame:presets.obj
 0002:00011ef0       __xmm@00000009000000090000002800000001 1006fef0     libmp3lame:presets.obj
 0002:00011f00       __xmm@00000009000000090000003000000001 1006ff00     libmp3lame:presets.obj
 0002:00011f10       __xmm@00000009000000090000003800000001 1006ff10     libmp3lame:presets.obj
 0002:00011f20       __xmm@00000009000000090000004000000001 1006ff20     libmp3lame:presets.obj
 0002:00011f30       __xmm@00000009000000090000005000000001 1006ff30     libmp3lame:presets.obj
 0002:00011f40       __xmm@00000009000000090000006000000001 1006ff40     libmp3lame:presets.obj
 0002:00011f50       __xmm@00000009000000090000007000000001 1006ff50     libmp3lame:presets.obj
 0002:00011f60       __xmm@00000009000000090000008000000001 1006ff60     libmp3lame:presets.obj
 0002:00011f70       __xmm@0000000900000009000000a000000001 1006ff70     libmp3lame:presets.obj
 0002:00011f80       __xmm@0000000900000009000000c000000001 1006ff80     libmp3lame:presets.obj
 0002:00011f90       __xmm@0000000900000009000000e000000000 1006ff90     libmp3lame:presets.obj
 0002:00011fa0       __xmm@00000009000000090000010000000000 1006ffa0     libmp3lame:presets.obj
 0002:00011fb0       __xmm@00000009000000090000014000000000 1006ffb0     libmp3lame:presets.obj
 0002:00011fc0       __xmm@0000000c000000080000001e0000001b 1006ffc0     libmpg123:layer2.obj
 0002:00011fd0       __xmm@00000013000000000000001200000011 1006ffd0     libmpg123:layer2.obj
 0002:00011fe0       __xmm@00000017000000160000000100000015 1006ffe0     libmpg123:layer2.obj
 0002:00011ff0       __xmm@00000020000000180000001000000008 1006fff0     libmp3lame:util.obj
 0002:00012000       __xmm@000000240000000c0000002400000024 10070000     libmpg123:layer3.obj
 0002:00012010       __xmm@00000040000000380000003000000028 10070010     libmp3lame:util.obj
 0002:00012020       __xmm@00000080000000700000006000000050 10070020     libmp3lame:util.obj
 0002:00012030       __xmm@000000d2000000d2000000d2000000d2 10070030     libmp3lame:quantize_pvt.obj
 0002:00012040       __xmm@00000100000000e0000000c0000000a0 10070040     libmp3lame:util.obj
 0002:00012050       __xmm@00000130000001300000013000000130 10070050     libmp3lame:encoder.obj
 0002:00012060       __xmm@00000146000001460000014600000146 10070060     libmp3lame:quantize_pvt.obj
 0002:00012070       __xmm@00000240000002400000024000000240 10070070     libmp3lame:encoder.obj
 0002:00012080       __xmm@00000e7400000010000007d000000008 10070080     libmp3lame:lame.obj
 0002:00012090       __xmm@00001000000010000000100000001000 10070090     libmp3lame:vbrquantize.obj
 0002:000120a0       __xmm@0000157c0000002000000f3c00000018 100700a0     libmp3lame:lame.obj
 0002:000120b0       __xmm@00001d4c0000003000001b5800000028 100700b0     libmp3lame:lame.obj
 0002:000120c0       __xmm@00002af8000000400000271000000038 100700c0     libmp3lame:lame.obj
 0002:000120d0       __xmm@000038a400003c8c000040740000445c 100700d0     libmp3lame:lame.obj
 0002:000120e0       __xmm@00003a3400003cf000003e800000445c 100700e0     libmp3lame:lame.obj
 0002:000120f0       __xmm@00003afc00000060000034bc00000050 100700f0     libmp3lame:lame.obj
 0002:00012100       __xmm@00003cf000004074000042680000445c 10070100     libmp3lame:lame.obj
 0002:00012110       __xmm@000042680000008000003cf000000070 10070110     libmp3lame:lame.obj
 0002:00012120       __xmm@000046500000484400004a3800004c2c 10070120     libmp3lame:lame.obj
 0002:00012130       __xmm@000046500000484400004c2c00005dc0 10070130     libmp3lame:lame.obj
 0002:00012140       __xmm@00004650000048a800004a3800004c2c 10070140     libmp3lame:lame.obj
 0002:00012150       __xmm@000048a8000000c00000445c000000a0 10070150     libmp3lame:lame.obj
 0002:00012160       __xmm@00004cf40000010000004bc8000000e0 10070160     libmp3lame:lame.obj
 0002:00012170       __xmm@000186a0000186a0000186a0000186a0 10070170     libmp3lame:takehiro.obj
 0002:00012180       __xmm@00ff00ff00ff00ff00ff00ff00ff00ff 10070180     libmpg123:tabinit.obj
 0002:00012190       __xmm@1e3ce5081e3ce5081e3ce5081e3ce508 10070190     libmp3lame:quantize_pvt.obj
 0002:000121a0       __xmm@3951b717408000004040000000000000 100701a0     libmp3lame:presets.obj
 0002:000121b0       __xmm@3a03126f409000004000000000000000 100701b0     libmp3lame:presets.obj
 0002:000121c0       __xmm@3a1d495240b000003f80000000000000 100701c0     libmp3lame:presets.obj
 0002:000121d0       __xmm@3a378034410000000000000000000000 100701d0     libmp3lame:presets.obj
 0002:000121e0       __xmm@3a51b71741300000c000000000000000 100701e0     libmp3lame:presets.obj
 0002:000121f0       __xmm@3a51b71741300000c0c0000000000000 100701f0     libmp3lame:presets.obj
 0002:00012200       __xmm@3a6bedfa41300000c120000000000000 10070200     libmp3lame:presets.obj
 0002:00012210       __xmm@3a83126f41300000c170000000000000 10070210     libmp3lame:presets.obj
 0002:00012220       __xmm@3a83126f41300000c1a0000000000000 10070220     libmp3lame:presets.obj
 0002:00012230       __xmm@3a83126f41300000c1c8000000000000 10070230     libmp3lame:presets.obj
 0002:00012240       __xmm@3a9d495241300000c1f0000000000000 10070240     libmp3lame:presets.obj
 0002:00012250       __xmm@3b0000003b0000003b0000003b000000 10070250     libmp3lame:util.obj
 0002:00012260       __xmm@3f500000000000003f50000000000000 10070260     libmp3lame:fft.obj
 0002:00012270       __xmm@3f700000000000003f70000000000000 10070270     libmp3lame:fft.obj
 0002:00012280       __xmm@3f7333334307000040c000003fe51eb8 10070280     libmp3lame:presets.obj
 0002:00012290       __xmm@3f733333430c000040cccccd3ff9999a 10070290     libmp3lame:presets.obj
 0002:000122a0       __xmm@3f7333334311000040d3333300000000 100702a0     libmp3lame:presets.obj
 0002:000122b0       __xmm@3f7333334311000040d3333340100000 100702b0     libmp3lame:presets.obj
 0002:000122c0       __xmm@3f7333334311000040d3333340200000 100702c0     libmp3lame:presets.obj
 0002:000122d0       __xmm@3f7851ec42fa000040b333333fbeb852 100702d0     libmp3lame:presets.obj
 0002:000122e0       __xmm@3f7ae14842fa000040a666663fa00000 100702e0     libmp3lame:presets.obj
 0002:000122f0       __xmm@3f8000003f8000003f8000003f800000 100702f0     libmp3lame:util.obj
 0002:00012300       __xmm@3f80000042fa000040a666663f666666 10070300     libmp3lame:presets.obj
 0002:00012310       __xmm@3f80000042fa000040a666663f7851ec 10070310     libmp3lame:presets.obj
 0002:00012320       __xmm@3fb47ae147ae147b3fb47ae147ae147b 10070320     libmp3lame:fft.obj
 0002:00012330       __xmm@3fd00000000000003fd0000000000000 10070330     libmp3lame:quantize_pvt.obj
 0002:00012340       __xmm@3fdae147ae147ae13fdae147ae147ae1 10070340     libmp3lame:fft.obj
 0002:00012350       __xmm@3fe00000000000003fe0000000000000 10070350     libmp3lame:fft.obj
 0002:00012360       __xmm@3fe80000000000003fe8000000000000 10070360     libmp3lame:quantize_pvt.obj
 0002:00012370       __xmm@3ff00000000000003ff0000000000000 10070370     libmpg123:tabinit.obj
 0002:00012380       __xmm@3ff55555555555553ff5555555555555 10070380     libmpg123:layer3.obj
 0002:00012390       __xmm@40000000000000004000000000000000 10070390     libmpg123:tabinit.obj
 0002:000123a0       __xmm@400921fb54442d18400921fb54442d18 100703a0     libmpg123:tabinit.obj
 0002:000123b0       __xmm@401921fb54442d18401921fb54442d18 100703b0     libmp3lame:fft.obj
 0002:000123c0       __xmm@402921fb54442d18402921fb54442d18 100703c0     libmp3lame:fft.obj
 0002:000123d0       __xmm@40c00000409000004119999a41166666 100703d0     libmp3lame:lame.obj
 0002:000123e0       __xmm@40c0000040a666664108000041000000 100703e0     libmp3lame:lame.obj
 0002:000123f0       __xmm@40d000000000000040d0000000000000 100703f0     libmp3lame:lame.obj
 0002:00012400       __xmm@40d00000409ccccd41166666411028f6 10070400     libmp3lame:lame.obj
 0002:00012410       __xmm@40d00000409ccccd41200000411e6666 10070410     libmp3lame:lame.obj
 0002:00012420       __xmm@40d0000040a33333411e66664119999a 10070420     libmp3lame:lame.obj
 0002:00012430       __xmm@40d0000040a666664100000040d00000 10070430     libmp3lame:lame.obj
 0002:00012440       __xmm@40d0000040a66666411028f641080000 10070440     libmp3lame:lame.obj
 0002:00012450       __xmm@4103333340e9999a40d0000040b66666 10070450     libmp3lame:lame.obj
 0002:00012460       __xmm@41200000412000004120000041200000 10070460     libmp3lame:psymodel.obj
 0002:00012470       __xmm@4160000041500000413e666641200000 10070470     libmp3lame:lame.obj
 0002:00012480       __xmm@41f00000000000000000000000000000 10070480     libmp3lame:gain_analysis.obj
 0002:00012490       __xmm@7fffffffffffffff7fffffffffffffff 10070490     libmp3lame:vbrquantize.obj
 0002:000124a0       __xmm@80000000000000008000000000000000 100704a0     libmpg123:tabinit.obj
 0002:000124b0       __xmm@80000000800000008000000080000000 100704b0     libmpg123:layer3.obj
 0002:000124c0       __xmm@80808080808080808080808080808080 100704c0     libmpg123:tabinit.obj
 0002:000124d0       __xmm@bf6e4f765fd8adacbf8d14e3bcd35a86 100704d0     libmpg123:layer3.obj
 0002:000124e0       __xmm@bfa4fdf3b645a1cbbfb851eb851eb852 100704e0     libmpg123:layer3.obj
 0002:000124f0       __xmm@bfc7ae147ae147aebfd51eb851eb851f 100704f0     libmpg123:layer3.obj
 0002:00012500       __xmm@bfc8000000000000bfc8000000000000 10070500     libmp3lame:quantize_pvt.obj
 0002:00012510       __xmm@bfe11eb851eb851fbfe3333333333333 10070510     libmpg123:layer3.obj
 0002:000197a8       __atan_table               100777a8     libucrt:atan_table.obj
 0002:0001afd0       ___acrt_cos_sin_ctable     10078fd0     libucrt:cos_sin_ctable.obj
 0002:0001b7d0       ___acrt_exp_tbl_addr       100797d0     libucrt:exp_tables.obj
 0002:0001bbe0       ___acrt_log_table_b        10079be0     libucrt:log_tables.obj
 0002:0001bff0       ___acrt_log_table_t        10079ff0     libucrt:log_tables.obj
 0002:0001c404       __half                     1007a404     libucrt:pow.obj
 0002:0001c410       ___acrt_pow_rcp_t1         1007a410     libucrt:pow_tables.obj
 0002:0001c820       ___acrt_pow_log2_t1        1007a820     libucrt:pow_tables.obj
 0002:0001d030       ___acrt_pow_rcp_t2         1007b030     libucrt:pow_tables.obj
 0002:0001d440       ___acrt_pow_log2_t2        1007b440     libucrt:pow_tables.obj
 0002:0001dc50       ___acrt_pow_rcp_t3         1007bc50     libucrt:pow_tables.obj
 0002:0001e460       ___acrt_pow_log2_t3        1007c460     libucrt:pow_tables.obj
 0002:0001f470       ___acrt_pow_clv            1007d470     libucrt:pow_tables.obj
 0002:0001f490       ___acrt_pow_exp2_tbl       1007d490     libucrt:pow_tables.obj
 0002:0001fcc0       ___acrt_tan_ctable         1007dcc0     libucrt:tan_tables.obj
 0002:00021924       ??_R4exception@std@@6B@    1007f924     LIBCMT:throw_bad_alloc.obj
 0002:00021938       ??_R3exception@std@@8      1007f938     LIBCMT:throw_bad_alloc.obj
 0002:00021948       ??_R2exception@std@@8      1007f948     LIBCMT:throw_bad_alloc.obj
 0002:00021950       ??_R1A@?0A@EA@exception@std@@8 1007f950     LIBCMT:throw_bad_alloc.obj
 0002:0002196c       ??_R4bad_alloc@std@@6B@    1007f96c     LIBCMT:throw_bad_alloc.obj
 0002:00021980       ??_R3bad_alloc@std@@8      1007f980     LIBCMT:throw_bad_alloc.obj
 0002:00021990       ??_R2bad_alloc@std@@8      1007f990     LIBCMT:throw_bad_alloc.obj
 0002:0002199c       ??_R1A@?0A@EA@bad_alloc@std@@8 1007f99c     LIBCMT:throw_bad_alloc.obj
 0002:000219b8       ??_R4bad_array_new_length@std@@6B@ 1007f9b8     LIBCMT:throw_bad_alloc.obj
 0002:000219cc       ??_R3bad_array_new_length@std@@8 1007f9cc     LIBCMT:throw_bad_alloc.obj
 0002:000219dc       ??_R2bad_array_new_length@std@@8 1007f9dc     LIBCMT:throw_bad_alloc.obj
 0002:000219ec       ??_R1A@?0A@EA@bad_array_new_length@std@@8 1007f9ec     LIBCMT:throw_bad_alloc.obj
 0002:00021a08       ??_R4type_info@@6B@        1007fa08     LIBCMT:std_type_info_static.obj
 0002:00021a1c       ??_R3type_info@@8          1007fa1c     LIBCMT:std_type_info_static.obj
 0002:00021a2c       ??_R2type_info@@8          1007fa2c     LIBCMT:std_type_info_static.obj
 0002:00021a34       ??_R1A@?0A@EA@type_info@@8 1007fa34     LIBCMT:std_type_info_static.obj
 0002:00021a50       ___safe_se_handler_table   1007fa50     <linker-defined>
 0002:00021e20       ___rtc_iaa                 1007fe20     LIBCMT:_initsect_.obj
 0002:00021e24       ___rtc_izz                 1007fe24     LIBCMT:_initsect_.obj
 0002:00021e28       ___rtc_taa                 1007fe28     LIBCMT:_initsect_.obj
 0002:00021e2c       ___rtc_tzz                 1007fe2c     LIBCMT:_initsect_.obj
 0002:00021e8c       __TI2?AVbad_alloc@std@@    1007fe8c     LIBCMT:throw_bad_alloc.obj
 0002:00021e9c       __CTA2?AVbad_alloc@std@@   1007fe9c     LIBCMT:throw_bad_alloc.obj
 0002:00021ea8       __CT??_R0?AVbad_alloc@std@@@8??0bad_alloc@std@@QAE@ABV01@@Z12 1007fea8     LIBCMT:throw_bad_alloc.obj
 0002:00021ec4       __CT??_R0?AVexception@std@@@8??0exception@std@@QAE@ABV01@@Z12 1007fec4     LIBCMT:throw_bad_alloc.obj
 0002:00021ee0       __TI3?AVbad_array_new_length@std@@ 1007fee0     LIBCMT:throw_bad_alloc.obj
 0002:00021ef0       __CTA3?AVbad_array_new_length@std@@ 1007fef0     LIBCMT:throw_bad_alloc.obj
 0002:00021f00       __CT??_R0?AVbad_array_new_length@std@@@8??0bad_array_new_length@std@@QAE@ABV01@@Z12 1007ff00     LIBCMT:throw_bad_alloc.obj
 0002:000222ec       __DELAY_IMPORT_DESCRIPTOR_node_exe 100802ec     node:node.exe
 0002:0002230c       __NULL_DELAY_IMPORT_DESCRIPTOR 1008030c     node:node.exe
 0002:000223f0       \177node_NULL_THUNK_DATA_DLN 100803f0     node:node.exe
 0002:00023020       \177node_NULL_THUNK_DATA_DLB 10081020     node:node.exe
 0002:00023144       __IMPORT_DESCRIPTOR_KERNEL32 10081144     kernel32:KERNEL32.dll
 0002:00023158       __NULL_IMPORT_DESCRIPTOR   10081158     kernel32:KERNEL32.dll
 0003:00000000       ___security_cookie_complement 10082000     LIBCMT:gs_cookie.obj
 0003:00000004       ___security_cookie         10082004     LIBCMT:gs_cookie.obj
 0003:00000008       ___scrt_native_dllmain_reason 10082008     LIBCMT:utility.obj
 0003:00000010       ___isa_enabled             10082010     LIBCMT:_cpu_disp_.obj
 0003:00000030       __NLG_Destination          10082030     libvcruntime:_exsup_.obj
 0003:00000040       __iob                      10082040     libucrt:_file.obj
 0003:000000f8       __lookuptrailbytes         100820f8     libucrt:read.obj
 0003:000001f8       ___abort_behavior          100821f8     libucrt:abort.obj
 0003:00000200       ___acrt_initial_locale_data 10082200     libucrt:nlsdata.obj
 0003:000002b8       ___acrt_initial_locale_pointers 100822b8     libucrt:nlsdata.obj
 0003:000002c0       ___acrt_wide_c_locale_string 100822c0     libucrt:nlsdata.obj
 0003:000002c8       ___badioinfo               100822c8     libucrt:ioinit.obj
 0003:000003f8       __mbctype                  100823f8     libucrt:mbctype.obj
 0003:00000500       __mbcasemap                10082500     libucrt:mbctype.obj
 0003:00000600       ___acrt_initial_multibyte_data 10082600     libucrt:mbctype.obj
 0003:00000820       ___acrt_current_multibyte_data 10082820     libucrt:mbctype.obj
 0003:00000824       ___globallocalestatus      10082824     libucrt:glstatus.obj
 0003:00000828       ___acrt_lconv_static_decimal 10082828     libucrt:localeconv.obj
 0003:0000082c       ___acrt_lconv_static_W_decimal 1008282c     libucrt:localeconv.obj
 0003:00000830       ___acrt_lconv_c            10082830     libucrt:localeconv.obj
 0003:00000880       ___dcrt_lowio_console_output_handle 10082880     libucrt:initcon.obj
 0003:00000890       __fltused                  10082890     LIBCMT:fltused.obj
 0003:00000a20       ??_R0?AVbad_alloc@std@@@8  10082a20     LIBCMT:throw_bad_alloc.obj
 0003:00000a3c       ??_R0?AVexception@std@@@8  10082a3c     LIBCMT:throw_bad_alloc.obj
 0003:00000a58       ??_R0?AVbad_array_new_length@std@@@8 10082a58     LIBCMT:throw_bad_alloc.obj
 0003:00000a80       ??_R0?AVtype_info@@@8      10082a80     LIBCMT:std_type_info_static.obj
 0003:00000a98       __imp_?GetCurrent@Isolate@v8@@SAPAV12@XZ 10082a98     node:node.exe
 0003:00000a9c       __imp_??1HandleScope@v8@@QAE@XZ 10082a9c     node:node.exe
 0003:00000aa0       __imp_??0HandleScope@v8@@QAE@PAVIsolate@1@@Z 10082aa0     node:node.exe
 0003:00000aa4       __imp__node_module_register 10082aa4     node:node.exe
 0003:00000aa8       __imp__uv_queue_work       10082aa8     node:node.exe
 0003:00000aac       __imp_?Global@Context@v8@@QAE?AV?$Local@VObject@v8@@@2@XZ 10082aac     node:node.exe
 0003:00000ab0       __imp_?Value@External@v8@@QBEPAXXZ 10082ab0     node:node.exe
 0003:00000ab4       __imp_?New@External@v8@@SA?AV?$Local@VExternal@v8@@@2@PAVIsolate@2@PAX@Z 10082ab4     node:node.exe
 0003:00000ab8       __imp_?NewFromUnsigned@Integer@v8@@SA?AV?$Local@VInteger@v8@@@2@PAVIsolate@2@I@Z 10082ab8     node:node.exe
 0003:00000abc       __imp_?New@Integer@v8@@SA?AV?$Local@VInteger@v8@@@2@PAVIsolate@2@H@Z 10082abc     node:node.exe
 0003:00000ac0       __imp_?GetCurrentContext@Isolate@v8@@QAE?AV?$Local@VContext@v8@@@2@XZ 10082ac0     node:node.exe
 0003:00000ac4       __imp_?CreateHandle@HandleScope@v8@@KAPAPAVObject@internal@2@PAVIsolate@42@PAV342@@Z 10082ac4     node:node.exe
 0003:00000ac8       __imp_?CreateHandle@HandleScope@v8@@CAPAPAVObject@internal@2@PAVHeapObject@42@PAV342@@Z 10082ac8     node:node.exe
 0003:00000acc       __imp_?New@Array@v8@@SA?AV?$Local@VArray@v8@@@2@PAVIsolate@2@H@Z 10082acc     node:node.exe
 0003:00000ad0       __imp_?SetClassName@FunctionTemplate@v8@@QAEXV?$Local@VString@v8@@@2@@Z 10082ad0     node:node.exe
 0003:00000ad4       __imp_?GetFunction@FunctionTemplate@v8@@QAE?AV?$MaybeLocal@VFunction@v8@@@2@V?$Local@VContext@v8@@@2@@Z 10082ad4     node:node.exe
 0003:00000ad8       __imp_?New@FunctionTemplate@v8@@SA?AV?$Local@VFunctionTemplate@v8@@@2@PAVIsolate@2@P6AXABV?$FunctionCallbackInfo@VValue@v8@@@2@@ZV?$Local@VValue@v8@@@2@V?$Local@VSignature@v8@@@2@H@Z 10082ad8     node:node.exe
 0003:00000adc       __imp_?ToLocalEmpty@V8@v8@@CAXXZ 10082adc     node:node.exe
 0003:00000ae0       __imp_?DisposeGlobal@V8@v8@@CAXPAPAVObject@internal@2@@Z 10082ae0     node:node.exe
 0003:00000ae4       __imp_?GlobalizeReference@V8@v8@@CAPAPAVObject@internal@2@PAVIsolate@42@PAPAV342@@Z 10082ae4     node:node.exe
 0003:00000ae8       __imp_?Int32Value@Value@v8@@QBE?AV?$Maybe@H@2@V?$Local@VContext@v8@@@2@@Z 10082ae8     node:node.exe
 0003:00000aec       __imp_?Int32Value@Value@v8@@QBEHXZ 10082aec     node:node.exe
 0003:00000af0       __imp_?NumberValue@Value@v8@@QBENXZ 10082af0     node:node.exe
 0003:00000af4       __imp_?ToInteger@Value@v8@@QBE?AV?$MaybeLocal@VInteger@v8@@@2@V?$Local@VContext@v8@@@2@@Z 10082af4     node:node.exe
 0003:00000af8       __imp_?HasCaught@TryCatch@v8@@QBE_NXZ 10082af8     node:node.exe
 0003:00000afc       __imp_??1TryCatch@v8@@QAE@XZ 10082afc     node:node.exe
 0003:00000b00       __imp_??0TryCatch@v8@@QAE@PAVIsolate@1@@Z 10082b00     node:node.exe
 0003:00000b04       __imp_?Escape@EscapableHandleScope@v8@@AAEPAPAVObject@internal@2@PAPAV342@@Z 10082b04     node:node.exe
 0003:00000b08       __imp_??0EscapableHandleScope@v8@@QAE@PAVIsolate@1@@Z 10082b08     node:node.exe
 0003:00000b0c       __imp_?NewFromUtf8@String@v8@@SA?AV?$MaybeLocal@VString@v8@@@2@PAVIsolate@2@PBDW4NewStringType@2@H@Z 10082b0c     node:node.exe
 0003:00000b10       __imp_?New@Number@v8@@SA?AV?$Local@VNumber@v8@@@2@PAVIsolate@2@N@Z 10082b10     node:node.exe
 0003:00000b14       __imp_?SlowGetInternalField@Object@v8@@AAE?AV?$Local@VValue@v8@@@2@H@Z 10082b14     node:node.exe
 0003:00000b18       __imp_?SetInternalField@Object@v8@@QAEXHV?$Local@VValue@v8@@@2@@Z 10082b18     node:node.exe
 0003:00000b1c       __imp_?ForceSet@Object@v8@@QAE?AV?$Maybe@_N@2@V?$Local@VContext@v8@@@2@V?$Local@VValue@v8@@@2@1W4PropertyAttribute@2@@Z 10082b1c     node:node.exe
 0003:00000b20       __imp_?Set@Object@v8@@QAE_NV?$Local@VValue@v8@@@2@0@Z 10082b20     node:node.exe
 0003:00000b24       __imp_?Set@Object@v8@@QAE?AV?$Maybe@_N@2@V?$Local@VContext@v8@@@2@IV?$Local@VValue@v8@@@2@@Z 10082b24     node:node.exe
 0003:00000b28       __imp_?Call@Function@v8@@QAE?AV?$Local@VValue@v8@@@2@V32@HQAV32@@Z 10082b28     node:node.exe
 0003:00000b2c       __imp_?SetInternalFieldCount@ObjectTemplate@v8@@QAEXH@Z 10082b2c     node:node.exe
 0003:00000b30       __imp_?NewInstance@ObjectTemplate@v8@@QAE?AV?$MaybeLocal@VObject@v8@@@2@V?$Local@VContext@v8@@@2@@Z 10082b30     node:node.exe
 0003:00000b34       __imp_?New@ObjectTemplate@v8@@SA?AV?$Local@VObjectTemplate@v8@@@2@PAVIsolate@2@V?$Local@VFunctionTemplate@v8@@@2@@Z 10082b34     node:node.exe
 0003:00000b38       __imp_?FatalException@node@@YAXPAVIsolate@v8@@ABVTryCatch@3@@Z 10082b38     node:node.exe
 0003:00000b3c       __imp_?HasInstance@Buffer@node@@YA_NV?$Local@VValue@v8@@@v8@@@Z 10082b3c     node:node.exe
 0003:00000b40       __imp_?New@Buffer@node@@YA?AV?$MaybeLocal@VObject@v8@@@v8@@PAVIsolate@4@PADIP6AX1PAX@Z2@Z 10082b40     node:node.exe
 0003:00000b44       __imp_?Data@Buffer@node@@YAPADV?$Local@VObject@v8@@@v8@@@Z 10082b44     node:node.exe
 0003:00000b48       __imp_?Length@Buffer@node@@YAIV?$Local@VObject@v8@@@v8@@@Z 10082b48     node:node.exe
 0003:00000b4c       __imp__uv_default_loop     10082b4c     node:node.exe
 0003:00000b50       __imp_?ToObject@Value@v8@@QBE?AV?$Local@VObject@v8@@@2@XZ 10082b50     node:node.exe
 0003:00000b54       __imp_?New@Object@v8@@SA?AV?$Local@VObject@v8@@@2@PAVIsolate@2@@Z 10082b54     node:node.exe
 0003:00000b58       __imp_?Set@Object@v8@@QAE?AV?$Maybe@_N@2@V?$Local@VContext@v8@@@2@V?$Local@VValue@v8@@@2@1@Z 10082b58     node:node.exe
 0003:00000b5c       \177node_NULL_THUNK_DATA_DLA 10082b5c     node:node.exe
 0003:00000b60       __hmod__node_exe           10082b60     node:node.exe
 0003:00000e84       ___scrt_current_native_startup_state 10082e84     LIBCMT:utility.obj
 0003:00000e88       ___scrt_native_startup_lock 10082e88     LIBCMT:utility.obj
 0003:00000ea8       ?__type_info_root_node@@3U__type_info_node@@A 10082ea8     LIBCMT:tncleanup.obj
 0003:00000eb0       ___scrt_debugger_hook_flag 10082eb0     LIBCMT:utility_desktop.obj
 0003:00000eb4       ___isa_available           10082eb4     LIBCMT:_cpu_disp_.obj
 0003:00000eb8       ___favor                   10082eb8     LIBCMT:_cpu_disp_.obj
 0003:00000f34       ___pPurecall               10082f34     libvcruntime:purevirt_data.obj
 0003:00000f38       ?pArgList@UnDecorator@@0PAVReplicator@@A 10082f38     libvcruntime:undname.obj
 0003:00000f3c       ?pZNameList@UnDecorator@@0PAVReplicator@@A 10082f3c     libvcruntime:undname.obj
 0003:00000f40       ?pTemplateArgList@UnDecorator@@0PAVReplicator@@A 10082f40     libvcruntime:undname.obj
 0003:00000f44       ?gName@UnDecorator@@0PBDB  10082f44     libvcruntime:undname.obj
 0003:00000f48       ?name@UnDecorator@@0PBDB   10082f48     libvcruntime:undname.obj
 0003:00000f4c       ?outputString@UnDecorator@@0PADA 10082f4c     libvcruntime:undname.obj
 0003:00000f50       ?maxStringLength@UnDecorator@@0HA 10082f50     libvcruntime:undname.obj
 0003:00000f54       ?disableFlags@UnDecorator@@0KA 10082f54     libvcruntime:undname.obj
 0003:00000f58       ?fExplicitTemplateParams@UnDecorator@@0_NA 10082f58     libvcruntime:undname.obj
 0003:00000f59       ?fGetTemplateArgumentList@UnDecorator@@0_NA 10082f59     libvcruntime:undname.obj
 0003:00000f5c       ?m_pGetParameter@UnDecorator@@0P6APADJ@ZA 10082f5c     libvcruntime:undname.obj
 0003:00000f74       __nstream                  10082f74     libucrt:_file.obj
 0003:00000f78       ___piob                    10082f78     libucrt:_file.obj
 0003:00000f7c       __cflush                   10082f7c     libucrt:_file.obj
 0003:00001098       __environ_table            10083098     libucrt:environment_initialization.obj
 0003:0000109c       __wenviron_table           1008309c     libucrt:environment_initialization.obj
 0003:000010a0       ___dcrt_initial_wide_environment 100830a0     libucrt:environment_initialization.obj
 0003:000010a4       ___dcrt_initial_narrow_environment 100830a4     libucrt:environment_initialization.obj
 0003:000010a8       ___acrt_atexit_table       100830a8     libucrt:onexit.obj
 0003:000010b4       ___acrt_at_quick_exit_table 100830b4     libucrt:onexit.obj
 0003:000010d8       ___acrt_locale_changed_data 100830d8     libucrt:wsetlocale.obj
 0003:000010dc       ___acrt_current_locale_data 100830dc     libucrt:nlsdata.obj
 0003:000010e0       ___pioinfo                 100830e0     libucrt:ioinit.obj
 0003:000012e0       __nhandle                  100832e0     libucrt:ioinit.obj
 0003:000012e8       ___acrt_stdout_buffer      100832e8     libucrt:_sftbuf.obj
 0003:000012ec       ___acrt_stderr_buffer      100832ec     libucrt:_sftbuf.obj
 0003:00001504       ___mblocalename            10083504     libucrt:mbctype.obj
 0003:00001508       ___mbcodepage              10083508     libucrt:mbctype.obj
 0003:0000150c       ___ismbcodepage            1008350c     libucrt:mbctype.obj
 0003:00001510       ___mbulinfo                10083510     libucrt:mbctype.obj
 0003:00001524       ___argc                    10083524     libucrt:argv_data.obj
 0003:00001528       ___argv                    10083528     libucrt:argv_data.obj
 0003:0000152c       ___wargv                   1008352c     libucrt:argv_data.obj
 0003:00001530       __acmdln                   10083530     libucrt:argv_data.obj
 0003:00001534       __wcmdln                   10083534     libucrt:argv_data.obj
 0003:00001538       __pgmptr                   10083538     libucrt:argv_data.obj
 0003:0000153c       ___acrt_heap               1008353c     libucrt:heap_handle.obj
 0003:00001548       ___acrt_lconv_static_null  10083548     libucrt:localeconv.obj
 0003:0000154c       ___acrt_lconv_static_W_null 1008354c     libucrt:localeconv.obj
 0003:00001550       ___fastflag                10083550     libucrt:fp_flags.obj
 0003:00001558       ?DloadKernel32@@3PAUHINSTANCE__@@A 10083558     DelayImp:delayhlp.obj
 0003:0000155c       ?DloadAcquireSRWLockExclusive@@3P6GXPAK@ZA 1008355c     DelayImp:delayhlp.obj
 0003:00001560       ?DloadReleaseSRWLockExclusive@@3P6GXPAK@ZA 10083560     DelayImp:delayhlp.obj
 0003:00001564       ?DloadSrwLock@@3KA         10083564     DelayImp:delayhlp.obj
 0003:00001568       ?DloadSectionLockCount@@3KA 10083568     DelayImp:delayhlp.obj
 0003:0000156c       ?DloadSectionOldProtection@@3KA 1008356c     DelayImp:delayhlp.obj
 0003:00001570       ?DloadSectionCommitPermanent@@3KA 10083570     DelayImp:delayhlp.obj
 0003:00012e2c       ___scrt_ucrt_dll_is_in_use 10094e2c     <common>
 0003:00012e30       ___dyn_tls_init_callback   10094e30     <common>
 0003:00012e34       __pDestructExceptionObject 10094e34     <common>
 0003:00012e38       __pmatherr                 10094e38     <common>
 0003:00012e3c       ___use_sse2_mathfcns       10094e3c     <common>
 0003:00012e40       _INT123_COS9               10094e40     <common>
 0003:00012e80       _INT123_tfcos36            10094e80     <common>
 0003:00012ec0       _adj43asm                  10094ec0     <common>
 0003:0001af00       _ipow20                    1009cf00     <common>
 0003:0001b320       _pow43                     1009d320     <common>
 0003:00023360       _pow20                     100a5360     <common>
 0003:00023938       ?_OptionsStorage@?1??__local_stdio_printf_options@@9@9 100a5938     <common>
 0003:00023940       ?_OptionsStorage@?1??__local_stdio_scanf_options@@9@9 100a5940     <common>

 entry point at        0001:000404ad

 Static symbols

 0000:fff52000       .debug$S                   10000000     node:node.exe
 0000:fff52000       .debug$S                   10000000     bindings.exp
 0000:fff52000       .debug$S                   10000000     kernel32:KERNEL32.dll
 0000:fff52000       .debug$S                   10000000     kernel32:KERNEL32.dll
 0000:fff52000       .debug$S                   10000000     kernel32:KERNEL32.dll
 0000:fff52000       .debug$S                   10000000     kernel32:KERNEL32.dll
 0000:fff52000       .debug$S                   10000000     kernel32:KERNEL32.dll
 0000:fff52000       .debug$S                   10000000     kernel32:KERNEL32.dll
 0000:fff52000       .debug$S                   10000000     kernel32:KERNEL32.dll
 0000:fff52000       .debug$S                   10000000     kernel32:KERNEL32.dll
 0000:fff52000       .debug$S                   10000000     kernel32:KERNEL32.dll
 0000:fff52000       .debug$S                   10000000     kernel32:KERNEL32.dll
 0000:fff52000       .debug$S                   10000000     kernel32:KERNEL32.dll
 0000:fff52000       .debug$S                   10000000     kernel32:KERNEL32.dll
 0000:fff52000       .debug$S                   10000000     kernel32:KERNEL32.dll
 0000:fff52000       .debug$S                   10000000     kernel32:KERNEL32.dll
 0000:fff52000       .debug$S                   10000000     kernel32:KERNEL32.dll
 0000:fff52000       .debug$S                   10000000     kernel32:KERNEL32.dll
 0000:fff52000       .debug$S                   10000000     kernel32:KERNEL32.dll
 0000:fff52000       .debug$S                   10000000     kernel32:KERNEL32.dll
 0000:fff52000       .debug$S                   10000000     kernel32:KERNEL32.dll
 0000:fff52000       .debug$S                   10000000     kernel32:KERNEL32.dll
 0000:fff52000       .debug$S                   10000000     kernel32:KERNEL32.dll
 0000:fff52000       .debug$S                   10000000     kernel32:KERNEL32.dll
 0000:fff52000       .debug$S                   10000000     kernel32:KERNEL32.dll
 0000:fff52000       .debug$S                   10000000     kernel32:KERNEL32.dll
 0000:fff52000       .debug$S                   10000000     kernel32:KERNEL32.dll
 0000:fff52000       .debug$S                   10000000     kernel32:KERNEL32.dll
 0000:fff52000       .debug$S                   10000000     kernel32:KERNEL32.dll
 0000:fff52000       .debug$S                   10000000     kernel32:KERNEL32.dll
 0000:fff52000       .debug$S                   10000000     kernel32:KERNEL32.dll
 0000:fff52000       .debug$S                   10000000     kernel32:KERNEL32.dll
 0000:fff52000       .debug$S                   10000000     kernel32:KERNEL32.dll
 0000:fff52000       .debug$S                   10000000     kernel32:KERNEL32.dll
 0000:fff52000       .debug$S                   10000000     kernel32:KERNEL32.dll
 0000:fff52000       .debug$S                   10000000     node:node.exe
 0000:fff52000       .debug$S                   10000000     node:node.exe
 0000:fff52000       .debug$S                   10000000     node:node.exe
 0000:fff52000       .debug$S                   10000000     node:node.exe
 0000:fff52000       .debug$S                   10000000     node:node.exe
 0000:fff52000       .debug$S                   10000000     node:node.exe
 0000:fff52000       .debug$S                   10000000     node:node.exe
 0000:fff52000       .debug$S                   10000000     node:node.exe
 0000:fff52000       .debug$S                   10000000     node:node.exe
 0000:fff52000       .debug$S                   10000000     node:node.exe
 0000:fff52000       .debug$S                   10000000     node:node.exe
 0000:fff52000       .debug$S                   10000000     node:node.exe
 0000:fff52000       .debug$S                   10000000     node:node.exe
 0000:fff52000       .debug$S                   10000000     node:node.exe
 0000:fff52000       .debug$S                   10000000     node:node.exe
 0000:fff52000       .debug$S                   10000000     node:node.exe
 0000:fff52000       .debug$S                   10000000     node:node.exe
 0000:fff52000       .debug$S                   10000000     kernel32:KERNEL32.dll
 0000:fff52000       .debug$S                   10000000     node:node.exe
 0000:fff52000       .debug$S                   10000000     node:node.exe
 0000:fff52000       .debug$S                   10000000     node:node.exe
 0000:fff52000       .debug$S                   10000000     node:node.exe
 0000:fff52000       .debug$S                   10000000     node:node.exe
 0000:fff52000       .debug$S                   10000000     node:node.exe
 0000:fff52000       .debug$S                   10000000     node:node.exe
 0000:fff52000       .debug$S                   10000000     node:node.exe
 0000:fff52000       .debug$S                   10000000     node:node.exe
 0000:fff52000       .debug$S                   10000000     node:node.exe
 0000:fff52000       .debug$S                   10000000     node:node.exe
 0000:fff52000       .debug$S                   10000000     kernel32:KERNEL32.dll
 0000:fff52000       .debug$S                   10000000     node:node.exe
 0000:fff52000       .debug$S                   10000000     node:node.exe
 0000:fff52000       .debug$S                   10000000     node:node.exe
 0000:fff52000       .debug$S                   10000000     node:node.exe
 0000:fff52000       .debug$S                   10000000     node:node.exe
 0000:fff52000       .debug$S                   10000000     node:node.exe
 0000:fff52000       .debug$S                   10000000     node:node.exe
 0000:fff52000       .debug$S                   10000000     node:node.exe
 0000:fff52000       .debug$S                   10000000     node:node.exe
 0000:fff52000       .debug$S                   10000000     node:node.exe
 0000:fff52000       .debug$S                   10000000     node:node.exe
 0000:fff52000       .debug$S                   10000000     node:node.exe
 0000:fff52000       .debug$S                   10000000     node:node.exe
 0000:fff52000       .debug$S                   10000000     node:node.exe
 0000:fff52000       .debug$S                   10000000     node:node.exe
 0000:fff52000       .debug$S                   10000000     node:node.exe
 0000:fff52000       .debug$S                   10000000     node:node.exe
 0000:fff52000       .debug$S                   10000000     node:node.exe
 0000:fff52000       .debug$S                   10000000     node:node.exe
 0000:fff52000       .debug$S                   10000000     node:node.exe
 0000:fff52000       .debug$S                   10000000     node:node.exe
 0000:fff52000       .debug$S                   10000000     node:node.exe
 0000:fff52000       .debug$S                   10000000     node:node.exe
 0000:fff52000       .debug$S                   10000000     node:node.exe
 0000:fff52000       .debug$S                   10000000     node:node.exe
 0000:fff52000       .debug$S                   10000000     node:node.exe
 0000:fff52000       .debug$S                   10000000     kernel32:KERNEL32.dll
 0000:fff52000       .debug$S                   10000000     kernel32:KERNEL32.dll
 0000:fff52000       .debug$S                   10000000     kernel32:KERNEL32.dll
 0000:fff52000       .debug$S                   10000000     kernel32:KERNEL32.dll
 0000:fff52000       .debug$S                   10000000     kernel32:KERNEL32.dll
 0000:fff52000       .debug$S                   10000000     kernel32:KERNEL32.dll
 0000:fff52000       .debug$S                   10000000     kernel32:KERNEL32.dll
 0000:fff52000       .debug$S                   10000000     kernel32:KERNEL32.dll
 0000:fff52000       .debug$S                   10000000     kernel32:KERNEL32.dll
 0000:fff52000       .debug$S                   10000000     kernel32:KERNEL32.dll
 0000:fff52000       .debug$S                   10000000     kernel32:KERNEL32.dll
 0000:fff52000       .debug$S                   10000000     kernel32:KERNEL32.dll
 0000:fff52000       .debug$S                   10000000     kernel32:KERNEL32.dll
 0000:fff52000       .debug$S                   10000000     kernel32:KERNEL32.dll
 0000:fff52000       .debug$S                   10000000     kernel32:KERNEL32.dll
 0000:fff52000       .debug$S                   10000000     kernel32:KERNEL32.dll
 0000:fff52000       .debug$S                   10000000     kernel32:KERNEL32.dll
 0000:fff52000       .debug$S                   10000000     kernel32:KERNEL32.dll
 0000:fff52000       .debug$S                   10000000     kernel32:KERNEL32.dll
 0000:fff52000       .debug$S                   10000000     kernel32:KERNEL32.dll
 0000:fff52000       .debug$S                   10000000     kernel32:KERNEL32.dll
 0000:fff52000       .debug$S                   10000000     kernel32:KERNEL32.dll
 0000:fff52000       .debug$S                   10000000     kernel32:KERNEL32.dll
 0000:fff52000       .debug$S                   10000000     kernel32:KERNEL32.dll
 0000:fff52000       .debug$S                   10000000     kernel32:KERNEL32.dll
 0000:fff52000       .debug$S                   10000000     kernel32:KERNEL32.dll
 0000:fff52000       .debug$S                   10000000     kernel32:KERNEL32.dll
 0000:fff52000       .debug$S                   10000000     kernel32:KERNEL32.dll
 0000:fff52000       .debug$S                   10000000     kernel32:KERNEL32.dll
 0000:fff52000       .debug$S                   10000000     kernel32:KERNEL32.dll
 0000:fff52000       .debug$S                   10000000     kernel32:KERNEL32.dll
 0000:fff52000       .debug$S                   10000000     kernel32:KERNEL32.dll
 0000:fff52000       .debug$S                   10000000     kernel32:KERNEL32.dll
 0000:fff52000       .debug$S                   10000000     kernel32:KERNEL32.dll
 0000:fff52000       .debug$S                   10000000     kernel32:KERNEL32.dll
 0000:fff52000       .debug$S                   10000000     kernel32:KERNEL32.dll
 0000:fff52000       .debug$S                   10000000     kernel32:KERNEL32.dll
 0000:fff52000       .debug$S                   10000000     kernel32:KERNEL32.dll
 0000:fff52000       .debug$S                   10000000     kernel32:KERNEL32.dll
 0000:fff52000       .debug$S                   10000000     kernel32:KERNEL32.dll
 0000:fff52000       .debug$S                   10000000     kernel32:KERNEL32.dll
 0000:fff52000       .debug$S                   10000000     kernel32:KERNEL32.dll
 0000:fff52000       .debug$S                   10000000     kernel32:KERNEL32.dll
 0000:fff52000       .debug$S                   10000000     kernel32:KERNEL32.dll
 0000:fff52000       .debug$S                   10000000     kernel32:KERNEL32.dll
 0000:fff52000       .debug$S                   10000000     kernel32:KERNEL32.dll
 0000:fff52000       .debug$S                   10000000     kernel32:KERNEL32.dll
 0000:fff52000       .debug$S                   10000000     kernel32:KERNEL32.dll
 0000:fff52000       .debug$S                   10000000     kernel32:KERNEL32.dll
 0000:fff52000       .debug$S                   10000000     kernel32:KERNEL32.dll
 0000:fff52000       .debug$S                   10000000     kernel32:KERNEL32.dll
 0000:fff52000       .debug$S                   10000000     kernel32:KERNEL32.dll
 0000:fff52000       .debug$S                   10000000     kernel32:KERNEL32.dll
 0000:fff52000       .debug$S                   10000000     kernel32:KERNEL32.dll
 0000:fff52000       .debug$S                   10000000     kernel32:KERNEL32.dll
 0000:fff52000       .debug$S                   10000000     kernel32:KERNEL32.dll
 0000:fff52000       .debug$S                   10000000     kernel32:KERNEL32.dll
 0001:00000040       __register_bindings        10001040 f   bindings.obj
 0001:00000050       ?FunctionCallbackWrapper@imp@Nan@@YAXABV?$FunctionCallbackInfo@VValue@v8@@@v8@@@Z 10001050 f   node_lame.obj
 0001:00000210       ?wrap_pointer_cb@@YAXPADPAX@Z 10001210 f   node_lame.obj
 0001:00000210       _bad_rewind                10001210 f   libmpg123:readers.obj
 0001:00000210       ?wrap_pointer_cb@@YAXPADPAX@Z 10001210 f   node_mpg123.obj
 0001:00000210       _bad_close                 10001210 f   libmpg123:readers.obj
 0001:0000bac0       ?load_exe_hook@@YGP6GHXZIPAUDelayLoadInfo@@@Z 1000cac0 f   win_delay_load_hook.obj
 0001:0000bb10       _lame_init_params_ppflt    1000cb10 f   libmp3lame:lame.obj
 0001:0000be20       _optimum_bandwidth         1000ce20 f   libmp3lame:lame.obj
 0001:0000bf70       _optimum_samplefreq        1000cf70 f   libmp3lame:lame.obj
 0001:0000c110       _lame_init_qval            1000d110 f   libmp3lame:lame.obj
 0001:0000c2d0       $LN39                      1000d2d0     libmp3lame:lame.obj
 0001:0000dab8       $LN401                     1000eab8     libmp3lame:lame.obj
 0001:0000dacc       $LN402                     1000eacc     libmp3lame:lame.obj
 0001:0000dae0       _concatSep                 1000eae0 f   libmp3lame:lame.obj
 0001:0000e2a8       $LN50                      1000f2a8     libmp3lame:lame.obj
 0001:0000e2bc       $LN51                      1000f2bc     libmp3lame:lame.obj
 0001:0000e2d0       $LN52                      1000f2d0     libmp3lame:lame.obj
 0001:0000e2e0       _save_gain_values          1000f2e0 f   libmp3lame:lame.obj
 0001:0000e470       _update_inbuffer_size      1000f470 f   libmp3lame:lame.obj
 0001:0000e540       _lame_encode_buffer_sample_t 1000f540 f   libmp3lame:lame.obj
 0001:0000e780       _lame_copy_inbuffer        1000f780 f   libmp3lame:lame.obj
 0001:0000ea00       $LN46                      1000fa00     libmp3lame:lame.obj
 0001:0000ea20       _lame_encode_buffer_template 1000fa20 f   libmp3lame:lame.obj
 0001:0000ebe0       _lame_init_old             1000fbe0 f   libmp3lame:lame.obj
 0001:0000ee90       _id3v2AddAudioDuration     1000fe90 f   libmp3lame:id3tag.obj
 0001:0000ef50       _local_strdup              1000ff50 f   libmp3lame:id3tag.obj
 0001:0000efc0       _id3v2_add_latin1          1000ffc0 f   libmp3lame:id3tag.obj
 0001:0000f0a0       _sizeOfNode                100100a0 f   libmp3lame:id3tag.obj
 0001:0000f0e0       _sizeOfCommentNode         100100e0 f   libmp3lame:id3tag.obj
 0001:0000f120       _sizeOfWxxxNode            10010120 f   libmp3lame:id3tag.obj
 0001:0000f170       _writeUcs2s                10010170 f   libmp3lame:id3tag.obj
 0001:0000f1b0       _writeLoBytes              100101b0 f   libmp3lame:id3tag.obj
 0001:0000f230       _set_frame_comment         10010230 f   libmp3lame:id3tag.obj
 0001:0000f350       _set_frame_custom2         10010350 f   libmp3lame:id3tag.obj
 0001:0000f450       _set_frame_wxxx            10010450 f   libmp3lame:id3tag.obj
 0001:0000f560       _set_frame_apic            10010560 f   libmp3lame:id3tag.obj
 0001:0000f950       _set_text_field            10010950 f   libmp3lame:id3tag.obj
 0001:0000fb30       _putbits2                  10010b30 f   libmp3lame:bitstream.obj
 0001:0000fc30       _drain_into_ancillary      10010c30 f   libmp3lame:bitstream.obj
 0001:0000fd00       _writeheader               10010d00 f   libmp3lame:bitstream.obj
 0001:0000fda0       _CRC_update                10010da0 f   libmp3lame:bitstream.obj
 0001:0000ff90       _encodeSideInfo2           10010f90 f   libmp3lame:bitstream.obj
 0001:00010500       _huffman_coder_count1      10011500 f   libmp3lame:bitstream.obj
 0001:000105f0       _Huffmancode               100115f0 f   libmp3lame:bitstream.obj
 0001:00010750       _writeMainData             10011750 f   libmp3lame:bitstream.obj
 0001:00011000       _apply_vbr_preset          10012000 f   libmp3lame:presets.obj
 0001:00011630       _apply_abr_preset          10012630 f   libmp3lame:presets.obj
 0001:00012060       $LN80                      10013060     libmp3lame:presets.obj
 0001:00012080       $LN81                      10013080     libmp3lame:presets.obj
 0001:000120ac       $LN74                      100130ac     libmp3lame:presets.obj
 0001:00012110       _convert_partition2scalefac 10013110 f   libmp3lame:psymodel.obj
 0001:00012380       _convert_partition2scalefac_l_to_s 10013380 f   libmp3lame:psymodel.obj
 0001:00012490       _pecalc_s                  10013490 f   libmp3lame:psymodel.obj
 0001:00012760       _pecalc_l                  10013760 f   libmp3lame:psymodel.obj
 0001:00012880       _calc_energy               10013880 f   libmp3lame:psymodel.obj
 0001:000129b0       _calc_mask_index_l         100139b0 f   libmp3lame:psymodel.obj
 0001:00012b60       _vbrpsy_compute_fft_l      10013b60 f   libmp3lame:psymodel.obj
 0001:00012cd0       _vbrpsy_compute_fft_s      10013cd0 f   libmp3lame:psymodel.obj
 0001:00012dc0       _vbrpsy_compute_loudness_approximation_l 10013dc0 f   libmp3lame:psymodel.obj
 0001:00012ea0       _vbrpsy_attack_detection   10013ea0 f   libmp3lame:psymodel.obj
 0001:000135c0       _vbrpsy_skip_masking_s     100145c0 f   libmp3lame:psymodel.obj
 0001:00013670       _vbrpsy_calc_mask_index_s  10014670 f   libmp3lame:psymodel.obj
 0001:00013820       _vbrpsy_compute_masking_s  10014820 f   libmp3lame:psymodel.obj
 0001:00013df0       _vbrpsy_compute_masking_l  10014df0 f   libmp3lame:psymodel.obj
 0001:000142e0       _vbrpsy_compute_block_type 100152e0 f   libmp3lame:psymodel.obj
 0001:00014340       _vbrpsy_apply_block_type   10015340 f   libmp3lame:psymodel.obj
 0001:000143b0       _vbrpsy_compute_MS_thresholds 100153b0 f   libmp3lame:psymodel.obj
 0001:00014d60       _init_numline              10015d60 f   libmp3lame:psymodel.obj
 0001:00015370       _compute_bark_values       10016370 f   libmp3lame:psymodel.obj
 0001:00015630       _init_s3_values            10016630 f   libmp3lame:psymodel.obj
 0001:00016900       _ATHformula_GB             10017900 f   libmp3lame:util.obj
 0001:00016c2c       $LN22                      10017c2c     libmp3lame:util.obj
 0001:00016e20       _gcd                       10017e20 f   libmp3lame:util.obj
 0001:00016e40       _fill_buffer_resample      10017e40 f   libmp3lame:util.obj
 0001:000178f0       _compute_ath               100188f0 f   libmp3lame:quantize_pvt.obj
 0001:00018e50       _calc_noise_core_c         10019e50 f   libmp3lame:quantize_pvt.obj
 0001:000192b0       _set_pinfo                 1001a2b0 f   libmp3lame:quantize_pvt.obj
 0001:00019b00       _setLameTagFrameHeader     1001ab00 f   libmp3lame:VbrTag.obj
 0001:00019dc0       _init_xrpow_core_c         1001adc0 f   libmp3lame:quantize.obj
 0001:00019e60       _init_xrpow                1001ae60 f   libmp3lame:quantize.obj
 0001:00019f10       _psfb21_analogsilence      1001af10 f   libmp3lame:quantize.obj
 0001:0001a140       _init_outer_loop           1001b140 f   libmp3lame:quantize.obj
 0001:0001a550       _bin_search_StepSize       1001b550 f   libmp3lame:quantize.obj
 0001:0001a6d0       _floatcompare              1001b6d0 f   libmp3lame:quantize.obj
 0001:0001a700       _trancate_smallspectrums   1001b700 f   libmp3lame:quantize.obj
 0001:0001aa30       _loop_break                1001ba30 f   libmp3lame:quantize.obj
 0001:0001aa80       _get_klemm_noise           1001ba80 f   libmp3lame:quantize.obj
 0001:0001ab70       _quant_compare             1001bb70 f   libmp3lame:quantize.obj
 0001:0001af70       $LN67                      1001bf70     libmp3lame:quantize.obj
 0001:0001afa0       _amp_scalefac_bands        1001bfa0 f   libmp3lame:quantize.obj
 0001:0001b110       _inc_scalefac_scale        1001c110 f   libmp3lame:quantize.obj
 0001:0001b1e0       _inc_subblock_gain         1001c1e0 f   libmp3lame:quantize.obj
 0001:0001b430       _balance_noise             1001c430 f   libmp3lame:quantize.obj
 0001:0001b530       _outer_loop                1001c530 f   libmp3lame:quantize.obj
 0001:0001b9f0       _VBR_encode_granule        1001c9f0 f   libmp3lame:quantize.obj
 0001:0001bb90       _VBR_old_prepare           1001cb90 f   libmp3lame:quantize.obj
 0001:0001bff0       _bitpressure_strategy      1001cff0 f   libmp3lame:quantize.obj
 0001:0001c4f0       _VBR_new_prepare           1001d4f0 f   libmp3lame:quantize.obj
 0001:0001ca50       _calc_target_bits          1001da50 f   libmp3lame:quantize.obj
 0001:0001d470       _ResetSampleFrequency      1001e470 f   libmp3lame:gain_analysis.obj
 0001:0001e140       _analyzeResult             1001f140 f   libmp3lame:gain_analysis.obj
 0001:0001e3b0       _adjust_ATH                1001f3b0 f   libmp3lame:encoder.obj
 0001:0001e4f0       _updateStats               1001f4f0 f   libmp3lame:encoder.obj
 0001:0001e5d0       _lame_encode_frame_init    1001f5d0 f   libmp3lame:encoder.obj
 0001:0001f2d0       _quantize_lines_xrpow      100202d0 f   libmp3lame:takehiro.obj
 0001:0001f470       _quantize_xrpow            10020470 f   libmp3lame:takehiro.obj
 0001:0001f800       _count_bit_ESC             10020800 f   libmp3lame:takehiro.obj
 0001:0001f880       _count_bit_noESC           10020880 f   libmp3lame:takehiro.obj
 0001:0001f8c0       _count_bit_noESC_from2     100208c0 f   libmp3lame:takehiro.obj
 0001:0001f930       _count_bit_noESC_from3     10020930 f   libmp3lame:takehiro.obj
 0001:0001f9f0       _count_bit_null            100209f0 f   libmp3lame:takehiro.obj
 0001:0001fa00       _choose_table_nonMMX       10020a00 f   libmp3lame:takehiro.obj
 0001:00020000       _recalc_divide_init        10021000 f   libmp3lame:takehiro.obj
 0001:00020140       _recalc_divide_sub         10021140 f   libmp3lame:takehiro.obj
 0001:000204e0       _scfsi_calc                100214e0 f   libmp3lame:takehiro.obj
 0001:000208f0       _mpeg1_scale_bitcount      100218f0 f   libmp3lame:takehiro.obj
 0001:00020a30       _mpeg2_scale_bitcount      10021a30 f   libmp3lame:takehiro.obj
 0001:00020d70       _fht                       10021d70 f   libmp3lame:fft.obj
 0001:00021810       _find_lowest_scalefac      10022810 f   libmp3lame:vbrquantize.obj
 0001:00021910       _k_34_4                    10022910 f   libmp3lame:vbrquantize.obj
 0001:00021a30       _calc_sfb_noise_x34        10022a30 f   libmp3lame:vbrquantize.obj
 0001:00021dc0       _guess_scalefac_x34        10022dc0 f   libmp3lame:vbrquantize.obj
 0001:00021e20       _find_scalefac_x34         10022e20 f   libmp3lame:vbrquantize.obj
 0001:00021fd0       _block_sf                  10022fd0 f   libmp3lame:vbrquantize.obj
 0001:00022240       _quantize_x34              10023240 f   libmp3lame:vbrquantize.obj
 0001:00022570       _set_subblock_gain         10023570 f   libmp3lame:vbrquantize.obj
 0001:00022730       _set_scalefacs             10023730 f   libmp3lame:vbrquantize.obj
 0001:00022940       _short_block_constrain     10023940 f   libmp3lame:vbrquantize.obj
 0001:00022b20       _long_block_constrain      10023b20 f   libmp3lame:vbrquantize.obj
 0001:00022ed0       _tryGlobalStepsize         10023ed0 f   libmp3lame:vbrquantize.obj
 0001:00022ff0       _searchGlobalStepsizeMax   10023ff0 f   libmp3lame:vbrquantize.obj
 0001:000231c0       _sfDepth                   100241c0 f   libmp3lame:vbrquantize.obj
 0001:00023210       _flattenDistribution       10024210 f   libmp3lame:vbrquantize.obj
 0001:00023290       _tryThatOne                10024290 f   libmp3lame:vbrquantize.obj
 0001:00023330       _outOfBitsStrategy         10024330 f   libmp3lame:vbrquantize.obj
 0001:00024200       _window_subband            10025200 f   libmp3lame:newmdct.obj
 0001:00025060       _mdct_short                10026060 f   libmp3lame:newmdct.obj
 0001:000254e0       _mdct_long                 100264e0 f   libmp3lame:newmdct.obj
 0001:00026590       _frame_buffercheck         10027590 f   libmpg123:libmpg123.obj
 0001:00026990       _get_next_frame            10027990 f   libmpg123:libmpg123.obj
 0001:00026b90       _decode_the_frame          10027b90 f   libmpg123:libmpg123.obj
 0001:00027040       _synth_stereo_wrap         10028040 f   libmpg123:optimize.obj
 0001:00027080       _find_dectype              10028080 f   libmpg123:optimize.obj
 0001:000272c0       $LN35                      100282c0     libmpg123:optimize.obj
 0001:00027420       _frame_default_pars        10028420 f   libmpg123:frame.obj
 0001:00027a60       _frame_fixed_reset         10028a60 f   libmpg123:frame.obj
 0001:00027ce0       _frame_free_buffers        10028ce0 f   libmpg123:frame.obj
 0001:00027ed0       _frame_fuzzy_find          10028ed0 f   libmpg123:frame.obj
 0001:00028870       _free_mpg123_text          10029870 f   libmpg123:id3.obj
 0001:000288c0       _free_id3_text             100298c0 f   libmpg123:id3.obj
 0001:00028950       _add_id3_text              10029950 f   libmpg123:id3.obj
 0001:000289e0       _pop_id3_text              100299e0 f   libmpg123:id3.obj
 0001:00028c10       _store_id3_text            10029c10 f   libmpg123:id3.obj
 0001:00028d90       _next_text                 10029d90 f   libmpg123:id3.obj
 0001:00028e00       _enc_name                  10029e00 f   libmpg123:id3.obj
 0001:00028e2c       $LN11                      10029e2c     libmpg123:id3.obj
 0001:00028e40       _process_text              10029e40 f   libmpg123:id3.obj
 0001:00028f64       $LN17                      10029f64     libmpg123:id3.obj
 0001:00028f80       _process_comment           10029f80 f   libmpg123:id3.obj
 0001:00029430       _process_extra             1002a430 f   libmpg123:id3.obj
 0001:000298b0       _promote_framename         1002a8b0 f   libmpg123:id3.obj
 0001:0002a504       $LN139                     1002b504     libmpg123:id3.obj
 0001:0002a520       _convert_latin1            1002b520 f   libmpg123:id3.obj
 0001:0002a620       _check_bom                 1002b620 f   libmpg123:id3.obj
 0001:0002a680       _convert_utf16bom          1002b680 f   libmpg123:id3.obj
 0001:0002aa10       _convert_utf8              1002ba10 f   libmpg123:id3.obj
 0001:0002aa70       _rate2num                  1002ba70 f   libmpg123:format.obj
 0001:0002aaa0       _cap_fit                   1002baa0 f   libmpg123:format.obj
 0001:0002ab30       _freq_fit                  1002bb30 f   libmpg123:format.obj
 0001:0002b110       _chop_fourth_byte          1002c110 f   libmpg123:format.obj
 0001:0002b290       _posix_read                1002c290 f   libmpg123:readers.obj
 0001:0002b2a0       _posix_lseek               1002c2a0 f   libmpg123:readers.obj
 0001:0002b2b0       _feed_seek_frame           1002c2b0 f   libmpg123:readers.obj
 0001:0002b2b0       _nix_lseek                 1002c2b0 f   libmpg123:readers.obj
 0001:0002b2c0       _plain_read                1002c2c0 f   libmpg123:readers.obj
 0001:0002b310       _icy_fullread              1002c310 f   libmpg123:readers.obj
 0001:0002b5b0       _plain_fullread            1002c5b0 f   libmpg123:readers.obj
 0001:0002b610       _stream_close              1002c610 f   libmpg123:readers.obj
 0001:0002b680       _stream_seek_frame         1002c680 f   libmpg123:readers.obj
 0001:0002b740       _generic_head_read         1002c740 f   libmpg123:readers.obj
 0001:0002b7a0       _generic_head_shift        1002c7a0 f   libmpg123:readers.obj
 0001:0002b7e0       _stream_skip_bytes         1002c7e0 f   libmpg123:readers.obj
 0001:0002b960       _stream_back_bytes         1002c960 f   libmpg123:readers.obj
 0001:0002b9a0       _generic_read_frame_body   1002c9a0 f   libmpg123:readers.obj
 0001:0002b9d0       _generic_tell              1002c9d0 f   libmpg123:readers.obj
 0001:0002ba00       _stream_rewind             1002ca00 f   libmpg123:readers.obj
 0001:0002baa0       _get_fileinfo              1002caa0 f   libmpg123:readers.obj
 0001:0002bbb0       _bc_fill_pool              1002cbb0 f   libmpg123:readers.obj
 0001:0002bc50       _bc_reset                  1002cc50 f   libmpg123:readers.obj
 0001:0002bcd0       _bc_add                    1002ccd0 f   libmpg123:readers.obj
 0001:0002bde0       _bc_give                   1002cde0 f   libmpg123:readers.obj
 0001:0002be90       _bc_forget                 1002ce90 f   libmpg123:readers.obj
 0001:0002bf00       _feed_init                 1002cf00 f   libmpg123:readers.obj
 0001:0002bfb0       _feed_read                 1002cfb0 f   libmpg123:readers.obj
 0001:0002bfe0       _feed_skip_bytes           1002cfe0 f   libmpg123:readers.obj
 0001:0002c030       _feed_back_bytes           1002d030 f   libmpg123:readers.obj
 0001:0002c0b0       _buffered_forget           1002d0b0 f   libmpg123:readers.obj
 0001:0002c0e0       _buffered_fullread         1002d0e0 f   libmpg123:readers.obj
 0001:0002c260       _bad_seek_frame            1002d260 f   libmpg123:readers.obj
 0001:0002c260       _bad_fullread              1002d260 f   libmpg123:readers.obj
 0001:0002c260       _bad_tell                  1002d260 f   libmpg123:readers.obj
 0001:0002c260       _bad_head_read             1002d260 f   libmpg123:readers.obj
 0001:0002c260       _bad_head_shift            1002d260 f   libmpg123:readers.obj
 0001:0002c260       _bad_skip_bytes            1002d260 f   libmpg123:readers.obj
 0001:0002c260       _bad_read_frame_body       1002d260 f   libmpg123:readers.obj
 0001:0002c260       _bad_init                  1002d260 f   libmpg123:readers.obj
 0001:0002c260       _bad_back_bytes            1002d260 f   libmpg123:readers.obj
 0001:0002c280       _default_init              1002d280 f   libmpg123:readers.obj
 0001:0002c6e0       _II_step_one               1002d6e0 f   libmpg123:layer2.obj
 0001:0002cd50       _II_step_two               1002dd50 f   libmpg123:layer2.obj
 0001:0002d510       _II_select_table           1002e510 f   libmpg123:layer2.obj
 0001:0002e9b0       _III_get_side_info         1002f9b0 f   libmpg123:layer3.obj
 0001:0002f490       _III_get_scale_factors_1   10030490 f   libmpg123:layer3.obj
 0001:0002ff50       _III_get_scale_factors_2   10030f50 f   libmpg123:layer3.obj
 0001:00030170       _III_dequantize_sample     10031170 f   libmpg123:layer3.obj
 0001:00030fd0       _III_i_stereo              10031fd0 f   libmpg123:layer3.obj
 0001:000316c0       _III_antialias             100326c0 f   libmpg123:layer3.obj
 0001:00032190       _dct12                     10033190 f   libmpg123:layer3.obj
 0001:00032760       _III_hybrid                10033760 f   libmpg123:layer3.obj
 0001:00032ee0       _INT123_getbits            10033ee0 f   libmpg123:parse.obj
 0001:00032f30       _head_check                10033f30 f   libmpg123:parse.obj
 0001:00032f70       _check_lame_tag            10033f70 f   libmpg123:parse.obj
 0001:0003384c       $LN113                     1003484c     libmpg123:parse.obj
 0001:00033858       $LN102                     10034858     libmpg123:parse.obj
 0001:00033870       _halfspeed_do              10034870 f   libmpg123:parse.obj
 0001:00033df0       _guess_freeformat_framesize 10034df0 f   libmpg123:parse.obj
 0001:00033ec0       _decode_header             10034ec0 f   libmpg123:parse.obj
 0001:00034340       _do_readahead              10035340 f   libmpg123:parse.obj
 0001:00034500       _skip_junk                 10035500 f   libmpg123:parse.obj
 0001:00034790       _wetwork                   10035790 f   libmpg123:parse.obj
 0001:0003dd60       _I_step_one                1003ed60 f   libmpg123:layer1.obj
 0001:0003e140       _I_step_two                1003f140 f   libmpg123:layer1.obj
 0001:0003f150       _dct64_1                   10040150 f   libmpg123:dct64_i386.obj
 0001:000401a5       ?dllmain_crt_dispatch@@YGHQAUHINSTANCE__@@KQAX@Z 100411a5 f   LIBCMT:dll_dllmain.obj
 0001:000401f8       ?dllmain_crt_process_attach@@YAHQAUHINSTANCE__@@QAX@Z 100411f8 f   LIBCMT:dll_dllmain.obj
 0001:0004030a       ?dllmain_crt_process_detach@@YAH_N@Z 1004130a f   LIBCMT:dll_dllmain.obj
 0001:00040387       ?dllmain_dispatch@@YAHQAUHINSTANCE__@@KQAX@Z 10041387 f   LIBCMT:dll_dllmain.obj
 0001:00040483       ?dllmain_raw@@YGHQAUHINSTANCE__@@KQAX@Z 10041483 f   LIBCMT:dll_dllmain.obj
 0001:0004072c       ?find_pe_section@@YAPAU_IMAGE_SECTION_HEADER@@QAEI@Z 1004172c f   LIBCMT:utility.obj
 0001:00040cc0       $$000000                   10041cc0     LIBCMT:_sehprolg4_.obj
 0001:00040ef0       $$000000                   10041ef0     libvcruntime:strchr.obj
 0001:00041020       $$000000                   10042020     libvcruntime:memmove.obj
 0001:00041284       TrailingUpVec              10042284     libvcruntime:memmove.obj
 0001:00041330       TrailingDownVec            10042330     libvcruntime:memmove.obj
 0001:000415a0       _ValidateLocalCookies      100425a0 f   libvcruntime:_chandler4_.obj
 0001:000418c0       $$000000                   100428c0     libvcruntime:memset.obj
 0001:00041a20       $$000000                   10042a20     libvcruntime:_exsup4_.obj
 0001:00041ab0       __unwind_handler4          10042ab0 f   libvcruntime:_exsup4_.obj
 0001:00041d1b       ?try_get_function@@YAPAXW4function_id@?A0x89697e75@@QBDQBW4module_id@2@2@Z 10042d1b f   libvcruntime:winapi_downlevel.obj
 0001:00041dbb       ?try_get_module@@YAPAUHINSTANCE__@@W4module_id@?A0x89697e75@@@Z 10042dbb f   libvcruntime:winapi_downlevel.obj
 0001:00042000       $$000000                   10043000     libvcruntime:_exsup_.obj
 0001:00042020       __unwind_handler           10043020 f   libvcruntime:_exsup_.obj
 0001:000422e7       ??$common_tox_l@$1?internal_isupper_l@@YA_NHQAU__crt_locale_pointers@@@Z$1?internal_map_lower@@YAHH0@Z@@YAHHKQAU__crt_locale_pointers@@@Z 100432e7 f   libucrt:tolower_toupper.obj
 0001:00042431       ?internal_isupper_l@@YA_NHQAU__crt_locale_pointers@@@Z 10043431 f   libucrt:tolower_toupper.obj
 0001:00042500       $$000000                   10043500     libucrt:strncmp.obj
 0001:000425f1       ??$common_vsprintf@Vstandard_base@__crt_stdio_output@@D@@YAH_KQADIQBDQAU__crt_locale_pointers@@1@Z 100435f1 f   libucrt:output.obj
 0001:00042ab4       ??R<lambda_4f2c1eaeead2a5fc776db5b62ea0fb9b>@@QBEHXZ 10043ab4 f   libucrt:output.obj
 0001:00042dae       $LN54                      10043dae     libucrt:output.obj
 0001:00042eca       $LN54                      10043eca     libucrt:output.obj
 0001:0004382a       $LN19                      1004482a     libucrt:output.obj
 0001:0004493e       _common_flush_all          1004593e f   libucrt:fflush.obj
 0001:00044a70       $$000000                   10045a70     libucrt:strncpy.obj
 0001:00044b94       ?atexit_exception_filter@@YAHK@Z 10045b94 f   libucrt:exit.obj
 0001:00044ba7       ?common_exit@@YAXHW4_crt_exit_cleanup_mode@@W4_crt_exit_return_mode@@@Z 10045ba7 f   libucrt:exit.obj
 0001:00044cc0       ?exit_or_terminate_process@@YAXI@Z 10045cc0 f   libucrt:exit.obj
 0001:00044d01       ?is_managed_app@@YA_NXZ    10045d01 f   libucrt:exit.obj
 0001:00044d45       ?try_cor_exit_process@@YAXI@Z 10045d45 f   libucrt:exit.obj
 0001:00044e00       ?shortsort@@YAXPAD0IP6AHPBX1@Z@Z 10045e00 f   libucrt:qsort.obj
 0001:00044ea0       ?swap@@YAXPAD0I@Z          10045ea0 f   libucrt:qsort.obj
 0001:0004555c       ??$common_atof_l@D@@YANQBDQAU__crt_locale_pointers@@@Z 1004655c f   libucrt:atof.obj
 0001:00045de3       $LN38                      10046de3     libucrt:atof.obj
 0001:00045ee7       $LN21                      10046ee7     libucrt:atof.obj
 0001:00045f0f       ??R<lambda_952f81e62542d0a726c252b8c2136a43>@@QBE_NXZ 10046f0f f   libucrt:atof.obj
 0001:00045f0f       ??R<lambda_3a2f1c4b88a94fdfdc7bccff06592946>@@QBE_NXZ 10046f0f f   libucrt:atof.obj
 0001:00045f0f       ??R<lambda_af0d5e41dc07595f2c52435db9a0efad>@@QBE_NXZ 10046f0f f   libucrt:atof.obj
 0001:00048828       _memcpy_s                  10049828 f   libucrt:atof.obj
 0001:00048828       _memcpy_s                  10049828 f   libucrt:mbctype.obj
 0001:00048828       _memcpy_s                  10049828 f   libucrt:cfout.obj
 0001:00048940       ??$common_vsscanf@D@@YAH_KQBDI1QAU__crt_locale_pointers@@QAD@Z 10049940 f   libucrt:input.obj
 0001:00049976       ??R<lambda_4794eb6df3f6f7d20e048423b4e04b2b>@@QBE_NXZ 1004a976 f   libucrt:input.obj
 0001:00049976       ??R<lambda_24bca0711811e6233a81aece93ea4a83>@@QBE_NXZ 1004a976 f   libucrt:input.obj
 0001:00049976       ??R<lambda_79c077965043167fb4fbb9f601780f11>@@QBE_NXZ 1004a976 f   libucrt:input.obj
 0001:00049ca0       $LN22                      1004aca0     libucrt:input.obj
 0001:0004a419       $LN18                      1004b419     libucrt:input.obj
 0001:0004aab3       ??$common_configure_argv@D@@YAHW4_crt_argv_mode@@@Z 1004bab3 f   libucrt:argv_parsing.obj
 0001:0004abd7       ??$parse_command_line@D@@YAXPADPAPAD0PAI2@Z 1004bbd7 f   libucrt:argv_parsing.obj
 0001:0004adac       ??$common_initialize_environment_nolock@D@@YAHXZ 1004bdac f   libucrt:environment_initialization.obj
 0001:0004ae05       ??$create_environment@D@@YAQAPADQAD@Z 1004be05 f   libucrt:environment_initialization.obj
 0001:0004aed6       ??$free_environment@_W@@YAXQAPA_W@Z 1004bed6 f   libucrt:environment_initialization.obj
 0001:0004aed6       ??$free_environment@D@@YAXQAPAD@Z 1004bed6 f   libucrt:environment_initialization.obj
 0001:0004af45       ??$uninitialize_environment_internal@D@@YAXAAPAPAD@Z 1004bf45 f   libucrt:environment_initialization.obj
 0001:0004af60       ??$uninitialize_environment_internal@_W@@YAXAAPAPA_W@Z 1004bf60 f   libucrt:environment_initialization.obj
 0001:0004b0f9       ??R<lambda_275893d493268fdec8709772e3fcec0e>@@QBEHXZ 1004c0f9 f   libucrt:onexit.obj
 0001:0004b219       ??R<lambda_4e60a939b0d047cfe11ddc22648dfba9>@@QBEHXZ 1004c219 f   libucrt:onexit.obj
 0001:0004b3ee       _initialize_global_variables 1004c3ee f   libucrt:initialization.obj
 0001:0004b400       _initialize_c              1004c400 f   libucrt:initialization.obj
 0001:0004b41a       _uninitialize_environment  1004c41a f   libucrt:initialization.obj
 0001:0004b422       _initialize_pointers       1004c422 f   libucrt:initialization.obj
 0001:0004b45f       _uninitialize_vcruntime    1004c45f f   libucrt:initialization.obj
 0001:0004b468       _uninitialize_allocated_memory 1004c468 f   libucrt:initialization.obj
 0001:0004b4df       _initialize_global_state_isolation 1004c4df f   libucrt:initialization.obj
 0001:0004b4df       _report_memory_leaks       1004c4df f   libucrt:initialization.obj
 0001:0004b4df       _uninitialize_c            1004c4df f   libucrt:initialization.obj
 0001:0004b4df       _initialize_environment    1004c4df f   libucrt:initialization.obj
 0001:0004b4df       _uninitialize_global_state_isolation 1004c4df f   libucrt:initialization.obj
 0001:0004b567       ??$translate_text_mode_nolock@D@@YAHHQADI@Z 1004c567 f   libucrt:read.obj
 0001:0004b6be       ??$translate_text_mode_nolock@_W@@YAHHQA_WI@Z 1004c6be f   libucrt:read.obj
 0001:0004b87e       ?translate_ansi_or_utf8_nolock@@YAHHQADIQA_WI@Z 1004c87e f   libucrt:read.obj
 0001:0004b9ce       ?translate_utf16_from_console_nolock@@YAHHQA_WI@Z 1004c9ce f   libucrt:read.obj
 0001:0004bf17       ??$common_lseek@J@@YAJHJH@Z 1004cf17 f   libucrt:lseek.obj
 0001:0004c002       ??$common_lseek@_J@@YA_JH_JH@Z 1004d002 f   libucrt:lseek.obj
 0001:0004c107       ??$common_lseek_nolock@J@@YAJHJH@Z 1004d107 f   libucrt:lseek.obj
 0001:0004c15e       ??$common_lseek_nolock@_J@@YA_JH_JH@Z 1004d15e f   libucrt:lseek.obj
 0001:0004c1dc       ?common_lseek_do_seek_nolock@@YAJQAXJH@Z 1004d1dc f   libucrt:lseek.obj
 0001:0004c6b8       ?get_global_action_nolock@@YAPAP6AXH@ZH@Z 1004d6b8 f   libucrt:signal.obj
 0001:0004c6fa       ?siglookup@@YAPAU__crt_signal_action_t@@HQAU1@@Z 1004d6fa f   libucrt:signal.obj
 0001:0004cb69       ?construct_ptd@@YAXQAU__acrt_ptd@@QAPAU__crt_locale_data@@@Z 1004db69 f   libucrt:per_thread_data.obj
 0001:0004cbe2       ?destroy_fls@@YGXPAX@Z     1004dbe2 f   libucrt:per_thread_data.obj
 0001:0004cc03       ?destroy_ptd@@YAXQAU__acrt_ptd@@@Z 1004dc03 f   libucrt:per_thread_data.obj
 0001:0004ccac       ?replace_current_thread_locale_nolock@@YAXQAU__acrt_ptd@@QAU__crt_locale_data@@@Z 1004dcac f   libucrt:per_thread_data.obj
 0001:0004cf29       ?initialize_inherited_file_handles_nolock@@YAXXZ 1004df29 f   libucrt:ioinit.obj
 0001:0004cfdf       ?initialize_stdio_handles_nolock@@YAXXZ 1004dfdf f   libucrt:ioinit.obj
 0001:0004d248       ?__acrt_LCMapStringA_stat@@YAHPAU__crt_locale_pointers@@PB_WKPBDHPADHHH@Z 1004e248 f   libucrt:lcmapstringa.obj
 0001:0004db54       ?fp_format_a@@YAHQBNPADIQADIH_NIQAU__crt_locale_pointers@@@Z 1004eb54 f   libucrt:cvt.obj
 0001:0004de57       ?fp_format_e@@YAHQBNQADI1IH_NIQAU__crt_locale_pointers@@@Z 1004ee57 f   libucrt:cvt.obj
 0001:0004def2       ?fp_format_e_internal@@YAHQADIH_NIQAU_strflt@@1QAU__crt_locale_pointers@@@Z 1004eef2 f   libucrt:cvt.obj
 0001:0004e03d       ?fp_format_f@@YAHQBNQADI1IHQAU__crt_locale_pointers@@@Z 1004f03d f   libucrt:cvt.obj
 0001:0004e0ca       ?fp_format_f_internal@@YAHQADIHQAU_strflt@@_NQAU__crt_locale_pointers@@@Z 1004f0ca f   libucrt:cvt.obj
 0001:0004e1a1       ?fp_format_g@@YAHQBNQADI1IH_NIQAU__crt_locale_pointers@@@Z 1004f1a1 f   libucrt:cvt.obj
 0001:0004e269       ?fp_format_nan_or_infinity@@YAHW4__acrt_fp_class@@_NPADI1@Z 1004f269 f   libucrt:cvt.obj
 0001:0004e361       ?shift_bytes@@YAXQADI0H@Z  1004f361 f   libucrt:cvt.obj
 0001:0004e631       ?try_get_function@@YAPAXW4function_id@?A0x352e5c4b@@QBDQBW4module_id@2@2@Z 1004f631 f   libucrt:winapi_thunks.obj
 0001:0004e6cd       ?try_get_module@@YAPAUHINSTANCE__@@W4module_id@?A0x352e5c4b@@@Z 1004f6cd f   libucrt:winapi_thunks.obj
 0001:0004ed79       ?write_double_translated_ansi_nolock@@YA?AUwrite_result@?A0x47fa6670@@HQBDI@Z 1004fd79 f   libucrt:write.obj
 0001:0004ef2c       ?write_double_translated_unicode_nolock@@YA?AUwrite_result@?A0x47fa6670@@QBDI@Z 1004ff2c f   libucrt:write.obj
 0001:0004ef99       ?write_requires_double_translation_nolock@@YA_NH@Z 1004ff99 f   libucrt:write.obj
 0001:0004f00f       ?write_text_ansi_nolock@@YA?AUwrite_result@?A0x47fa6670@@HQBDI@Z 1005000f f   libucrt:write.obj
 0001:0004f0ee       ?write_text_utf16le_nolock@@YA?AUwrite_result@?A0x47fa6670@@HQBDI@Z 100500ee f   libucrt:write.obj
 0001:0004f1dc       ?write_text_utf8_nolock@@YA?AUwrite_result@?A0x47fa6670@@HQBDI@Z 100501dc f   libucrt:write.obj
 0001:0004f600       ??$common_flush_and_write_nolock@D@@YAHHV__crt_stdio_stream@@@Z 10050600 f   libucrt:_flsbuf.obj
 0001:0004f711       ??$write_buffer_nolock@D@@YA_NDV__crt_stdio_stream@@@Z 10050711 f   libucrt:_flsbuf.obj
 0001:0004f7f0       $$000000                   100507f0     libucrt:_strnicm.obj
 0001:0004f85c       ??$common_tcsncpy_s@D@@YAHQADIQBDI@Z 1005085c f   libucrt:strncpy_s.obj
 0001:0004fc09       ?<helper_func_cdecl>@<lambda_62bb7ecb46d0a77b591a051c43eb5ad1>@@CAHPBX0@Z 10050c09 f   libucrt:argv_wildcards.obj
 0001:0004fc21       ??$common_expand_argv_wildcards@D@@YAHQAPADQAPAPAD@Z 10050c21 f   libucrt:argv_wildcards.obj
 0001:0004fdb1       ??$copy_and_add_argument_to_buffer@D@@YAHQBD0IAAV?$argument_list@D@?A0xb0e4b824@@@Z 10050db1 f   libucrt:argv_wildcards.obj
 0001:0004fe47       ??$expand_argument_wildcards@D@@YAHQAD0AAV?$argument_list@D@?A0xb0e4b824@@@Z 10050e47 f   libucrt:argv_wildcards.obj
 0001:00050122       ??R<lambda_ad1ced32f4ac17aa236e5ef05d6b3b7c>@@QBEXXZ 10051122 f   libucrt:mbctype.obj
 0001:000501e6       ?CPtoLocaleName@@YAPB_WH@Z 100511e6 f   libucrt:mbctype.obj
 0001:00050224       ?getSystemCP@@YAHH@Z       10051224 f   libucrt:mbctype.obj
 0001:00050297       ?setSBCS@@YAXPAU__crt_multibyte_data@@@Z 10051297 f   libucrt:mbctype.obj
 0001:000502fc       ?setSBUpLow@@YAXPAU__crt_multibyte_data@@@Z 100512fc f   libucrt:mbctype.obj
 0001:00050490       ?setmbcp_internal@@YAHH_N@Z 10051490 f   libucrt:mbctype.obj
 0001:00050842       ?x_ismbbtype_l@@YAHPAU__crt_locale_pointers@@IHH@Z 10051842 f   libucrt:ismbbyte.obj
 0001:000508cc       ?find_end_of_double_null_terminated_sequence@@YAPB_WQB_W@Z 100518cc f   libucrt:get_environment_from_os.obj
 0001:000510b3       ?free_crt_array_internal@@YAXQAPBXI@Z 100520b3 f   libucrt:inittime.obj
 0001:0005278e       ?GetTableIndexFromLocaleName@@YAHPB_W@Z 1005378e f   libucrt:lcidtoname_downlevel.obj
 0001:00052a0e       ___get_abstract_control_sse2 10053a0e f   libucrt:_fenvutils.obj
 0001:00052a8b       ___get_abstract_control_x87 10053a8b f   libucrt:_fenvutils.obj
 0001:00052afe       ___get_machine_control     10053afe f   libucrt:_fenvutils.obj
 0001:00052b6f       ___get_machine_control_sse2 10053b6f f   libucrt:_fenvutils.obj
 0001:00052bef       ___get_machine_status_sse2 10053bef f   libucrt:_fenvutils.obj
 0001:00052c50       ___get_machine_status_x87  10053c50 f   libucrt:_fenvutils.obj
 0001:00052ea0       $$000000                   10053ea0     libucrt:strpbrk.obj
 0001:00052f84       ?initialize_multibyte@@YAHXZ 10053f84 f   libucrt:multibyte_initializer.obj
 0001:00053080       $$000000                   10054080     libucrt:log10.obj
 0001:000531d0       $$000000                   100541d0     libucrt:ceil_pentium4.obj
 0001:00053450       $$000000                   10054450     libucrt:log10_pentium4.obj
 0001:000536e0       $$000000                   100546e0     libucrt:87tran.obj
 0001:000538e0       $$000000                   100548e0     libucrt:87disp.obj
 0001:00053ae0       $$000000                   10054ae0     libucrt:common.obj
 0001:00053c70       $$000000                   10054c70     libucrt:genexcep.obj
 0001:000552a0       $$000000                   100562a0     LIBCMT:ulldvrm.obj
 0001:00055340       $$000000                   10056340     LIBCMT:llmul.obj
 0001:00055380       $$000000                   10056380     LIBCMT:lldiv.obj
 0001:00055430       $$000000                   10056430     LIBCMT:chkstk.obj
 0001:00055460       $$000000                   10056460     LIBCMT:_sehprolg4gs_.obj
 0001:000554c0       $$000000                   100564c0     LIBCMT:llshl.obj
 0001:000554e0       $$000000                   100564e0     LIBCMT:ullshr.obj
 0001:00055500       $$000000                   10056500     LIBCMT:alloca16.obj
 0001:00055530       $$000000                   10056530     LIBCMT:lldvrm.obj
 0001:00055610       $$000000                   10056610     LIBCMT:_ftol2_.obj
 0001:000556d0       $$000000                   100566d0     libvcruntime:memcpy.obj
 0001:00055934       TrailingUpVec              10056934     libvcruntime:memcpy.obj
 0001:000559e0       TrailingDownVec            100569e0     libvcruntime:memcpy.obj
 0001:00055c50       $$000000                   10056c50     libvcruntime:strrchr.obj
 0001:00055d90       $$000000                   10056d90     LIBCMT:_svml_dcos2_dispatch_.obj
 0001:00055da0       $$000000                   10056da0     LIBCMT:_svml_dlog2_dispatch_.obj
 0001:00055db0       $$000000                   10056db0     LIBCMT:_svml_dpow2_dispatch_.obj
 0001:00055dc0       $$000000                   10056dc0     LIBCMT:_ftol3_.obj
 0001:00056140       $$000000                   10057140     LIBCMT:_svml_dcos2_sse2_.obj
 0001:000562e0       $$000000                   100572e0     LIBCMT:_svml_dlog2_sse2_.obj
 0001:000564b0       _TestInt                   100574b0 f   LIBCMT:_svml_dpow2_sse2_.obj
 0001:000564b0       $$000000                   100574b0     LIBCMT:_svml_dpow2_sse2_.obj
 0001:00056540       __vmldPow_HA_scalar        10057540 f   LIBCMT:_svml_dpow2_sse2_.obj
 0001:00056a20       __raise_zerodivide         10057a20 f   LIBCMT:_svml_dpow2_sse2_.obj
 0001:00056a40       _pow_scalar                10057a40 f   LIBCMT:_svml_dpow2_sse2_.obj
 0001:00057590       __raise_invalid            10058590 f   LIBCMT:_svml_dpow2_sse2_.obj
 0001:000575a0       $$000000                   100585a0     LIBCMT:_svml_dtrig_.obj
 0001:00057890       ___common_srl              10058890 f   LIBCMT:_svml_dtrig_.obj
 0001:000578c0       ___common_sll              100588c0 f   LIBCMT:_svml_dtrig_.obj
 0001:00057ef0       $$000000                   10058ef0     libucrt:atan_sse2_precise.obj
 0001:000581e0       $$000000                   100591e0     libucrt:cos_sse2_precise.obj
 0001:000583a0       $$000000                   100593a0     libucrt:exp_sse2_precise.obj
 0001:00058680       $$000000                   10059680     libucrt:log10_sse2_precise.obj
 0001:00058930       $$000000                   10059930     libucrt:log_sse2_precise.obj
 0001:00058bd0       $$000000                   10059bd0     libucrt:pow_sse2_precise.obj
 0001:00059720       $$000000                   1005a720     libucrt:sin_sse2_precise.obj
 0001:000598f0       $$000000                   1005a8f0     libucrt:sqrt_sse2_precise.obj
 0001:000599f0       $$000000                   1005a9f0     libucrt:tan_sse2_precise.obj
 0001:00059c60       $$000000                   1005ac60     libucrt:floor_pentium4.obj
 0001:00059d60       $$000000                   1005ad60     libucrt:atan.obj
 0001:00059e80       $$000000                   1005ae80     libucrt:cos.obj
 0001:00059fb0       $$000000                   1005afb0     libucrt:87ctran.obj
 0001:0005a040       $$000000                   1005b040     libucrt:log.obj
 0001:0005a190       $$000000                   1005b190     libucrt:pow.obj
 0001:0005a420       $$000000                   1005b420     libucrt:sin.obj
 0001:0005a550       $$000000                   1005b550     libucrt:sqrt.obj
 0001:0005a610       $$000000                   1005b610     libucrt:tan.obj
 0001:0005a7f0       $$000000                   1005b7f0     libucrt:atan_pentium4.obj
 0001:0005aac0       $$000000                   1005bac0     libucrt:cos_pentium4.obj
 0001:0005ac70       $$000000                   1005bc70     libucrt:exp_pentium4.obj
 0001:0005af30       $$000000                   1005bf30     libucrt:87cdisp.obj
 0001:0005b1c0       $$000000                   1005c1c0     libucrt:log_pentium4.obj
 0001:0005b430       $$000000                   1005c430     libucrt:pow_pentium4.obj
 0001:0005bf50       $$000000                   1005cf50     libucrt:sin_pentium4.obj
 0001:0005c120       $$000000                   1005d120     libucrt:tan_pentium4.obj
 0002:00000170       _GS_ExceptionPointers      1005e170     LIBCMT:gs_report.obj
 0002:000001e0       ?ExceptionTemplate@?1??_CxxThrowException@@9@8@4UEHExceptionRecord@@B 1005e1e0     libvcruntime:throw.obj
 0002:00000200       ?module_names@?A0x89697e75@@3QBQB_WB 1005e200     libvcruntime:winapi_downlevel.obj
 0002:000002b0       ?candidate_modules@?1??try_get_FlsAlloc@@YAP6GKP6GXPAX@Z@ZXZ@4QBW4module_id@?A0x89697e75@@B 1005e2b0     libvcruntime:winapi_downlevel.obj
 0002:000002c4       ?candidate_modules@?1??try_get_FlsFree@@YAP6GHK@ZXZ@4QBW4module_id@?A0x89697e75@@B 1005e2c4     libvcruntime:winapi_downlevel.obj
 0002:000002d4       ?candidate_modules@?1??try_get_FlsGetValue@@YAP6GPAXK@ZXZ@4QBW4module_id@?A0x89697e75@@B 1005e2d4     libvcruntime:winapi_downlevel.obj
 0002:000002e8       ?candidate_modules@?1??try_get_FlsSetValue@@YAP6GHKPAX@ZXZ@4QBW4module_id@?A0x89697e75@@B 1005e2e8     libvcruntime:winapi_downlevel.obj
 0002:000002fc       ?candidate_modules@?1??try_get_InitializeCriticalSectionEx@@YAP6GHPAU_RTL_CRITICAL_SECTION@@KK@ZXZ@4QBW4module_id@?A0x89697e75@@B 1005e2fc     libvcruntime:winapi_downlevel.obj
 0002:00000320       ?tokenTable@@3QBQBDB       1005e320     libvcruntime:undname.obj
 0002:00000358       ?nameTable@@3QBQBDB        1005e358     libvcruntime:undname.obj
 0002:0000049c       ?rttiTable@@3QBQBDB        1005e49c     libvcruntime:undname.obj
 0002:00001678       _errtable                  1005f678     libucrt:errno.obj
 0002:00001930       ___acrt_initializers       1005f930     libucrt:initialization.obj
 0002:000024b8       _module_names              100604b8     libucrt:winapi_thunks.obj
 0002:00002958       ?candidate_modules@?1??try_get_FlsAlloc@@YAP6GKP6GXPAX@Z@ZXZ@4QBW4module_id@?A0x352e5c4b@@B 10060958     libucrt:winapi_thunks.obj
 0002:00002960       ?candidate_modules@?1??try_get_FlsFree@@YAP6GHK@ZXZ@4QBW4module_id@?A0x352e5c4b@@B 10060960     libucrt:winapi_thunks.obj
 0002:00002968       ?candidate_modules@?1??try_get_FlsGetValue@@YAP6GPAXK@ZXZ@4QBW4module_id@?A0x352e5c4b@@B 10060968     libucrt:winapi_thunks.obj
 0002:00002970       ?candidate_modules@?1??try_get_FlsSetValue@@YAP6GHKPAX@ZXZ@4QBW4module_id@?A0x352e5c4b@@B 10060970     libucrt:winapi_thunks.obj
 0002:00002978       ?candidate_modules@?1??try_get_GetCurrentPackageId@@YAP6GJPAIPAE@ZXZ@4QBW4module_id@?A0x352e5c4b@@B 10060978     libucrt:winapi_thunks.obj
 0002:00002994       ?candidate_modules@?1??try_get_InitializeCriticalSectionEx@@YAP6GHPAU_RTL_CRITICAL_SECTION@@KK@ZXZ@4QBW4module_id@?A0x352e5c4b@@B 10060994     libucrt:winapi_thunks.obj
 0002:0000299c       ?candidate_modules@?1??try_get_LCMapStringEx@@YAP6GHPB_WK0HPA_WHPAU_nlsversioninfo@@PAXJ@ZXZ@4QBW4module_id@?A0x352e5c4b@@B 1006099c     libucrt:winapi_thunks.obj
 0002:000029b4       ?candidate_modules@?1??try_get_LocaleNameToLCID@@YAP6GKPB_WK@ZXZ@4QBW4module_id@?A0x352e5c4b@@B 100609b4     libucrt:winapi_thunks.obj
 0002:000029d0       __mb_locale_names          100609d0     libucrt:mbctype.obj
 0002:00002a40       _LcidToLocaleNameTable     10060a40     libucrt:lcidtoname_downlevel.obj
 0002:00003b60       _LocaleNameToIndexTable    10061b60     libucrt:lcidtoname_downlevel.obj
 0002:00004ab0       LOG_name                   10062ab0     libucrt:log10.obj
 0002:00004ac0       _One                       10062ac0     libucrt:ceil_pentium4.obj
 0002:00004ad0       _Bns                       10062ad0     libucrt:ceil_pentium4.obj
 0002:00004ae0       _Zero                      10062ae0     libucrt:ceil_pentium4.obj
 0002:00004af0       _S                         10062af0     libucrt:ceil_pentium4.obj
 0002:00004b00       _NegZero                   10062b00     libucrt:ceil_pentium4.obj
 0002:00004b20       emask                      10062b20     libucrt:log10_pentium4.obj
 0002:00004b30       CC                         10062b30     libucrt:log10_pentium4.obj
 0002:00004b40       Magic                      10062b40     libucrt:log10_pentium4.obj
 0002:00004b50       hi_mask                    10062b50     libucrt:log10_pentium4.obj
 0002:00004b60       LOG10_2                    10062b60     libucrt:log10_pentium4.obj
 0002:00004b70       place_L                    10062b70     libucrt:log10_pentium4.obj
 0002:00004b90       One                        10062b90     libucrt:log10_pentium4.obj
 0002:00004ba0       Zero                       10062ba0     libucrt:log10_pentium4.obj
 0002:00004bb0       Two52                      10062bb0     libucrt:log10_pentium4.obj
 0002:00004bc0       Infs                       10062bc0     libucrt:log10_pentium4.obj
 0002:00004bd0       NaN                        10062bd0     libucrt:log10_pentium4.obj
 0002:00004be0       coeff                      10062be0     libucrt:log10_pentium4.obj
 0002:00004c3e       _log2max                   10062c3e     libucrt:87tran.obj
 0002:00004c48       _smallarg                  10062c48     libucrt:87tran.obj
 0002:00004c52       _half                      10062c52     libucrt:87tran.obj
 0002:00004c9e       One                        10062c9e     libucrt:87disp.obj
 0002:00004ca6       Three                      10062ca6     libucrt:87disp.obj
 0002:00004cae       XAMtoTagTab                10062cae     libucrt:87disp.obj
 0002:00004cc0       One                        10062cc0     libucrt:common.obj
 0002:00004cd4       DblMax                     10062cd4     libucrt:common.obj
 0002:00004cdc       DblMin                     10062cdc     libucrt:common.obj
 0002:00004ce4       IeeeAdjO                   10062ce4     libucrt:common.obj
 0002:00004cec       IeeeAdjU                   10062cec     libucrt:common.obj
 0002:00004cf4       _infinity                  10062cf4     libucrt:common.obj
 0002:00004cfc       _zero                      10062cfc     libucrt:common.obj
 0002:00004d30       _over                      10062d30     libucrt:fpctrl.obj
 0002:00004d3c       _under                     10062d3c     libucrt:fpctrl.obj
 0002:00005600       ?_names@?1??_get_fname@@9@9 10063600     libucrt:fpexcept.obj
 0002:000067d4       ?mime_png@?7??lame_get_id3v2_tag@@9@9 100647d4     libmp3lame:id3tag.obj
 0002:000067d8       _genre_names               100647d8     libmp3lame:id3tag.obj
 0002:00006a28       ?mime_gif@?7??lame_get_id3v2_tag@@9@9 10064a28     libmp3lame:id3tag.obj
 0002:00006a2c       ?mime_jpeg@?7??lame_get_id3v2_tag@@9@9 10064a2c     libmp3lame:id3tag.obj
 0002:00006af0       _t15HB                     10064af0     libmp3lame:tables.obj
 0002:00006d00       _t8l                       10064d00     libmp3lame:tables.obj
 0002:00006d24       _t3HB                      10064d24     libmp3lame:tables.obj
 0002:00006d38       _t9HB                      10064d38     libmp3lame:tables.obj
 0002:00006d80       _t16HB                     10064d80     libmp3lame:tables.obj
 0002:000071d0       _t11l                      100651d0     libmp3lame:tables.obj
 0002:00007210       _t16l                      10065210     libmp3lame:tables.obj
 0002:00007310       _t5HB                      10065310     libmp3lame:tables.obj
 0002:00007330       _t24HB                     10065330     libmp3lame:tables.obj
 0002:00007530       _t6HB                      10065530     libmp3lame:tables.obj
 0002:00007550       _t6l                       10065550     libmp3lame:tables.obj
 0002:00007560       _t12HB                     10065560     libmp3lame:tables.obj
 0002:000075e0       _t13HB                     100655e0     libmp3lame:tables.obj
 0002:000077e0       _t1HB                      100657e0     libmp3lame:tables.obj
 0002:000077e8       _t15l                      100657e8     libmp3lame:tables.obj
 0002:000078e8       _t9l                       100658e8     libmp3lame:tables.obj
 0002:00007910       _t11HB                     10065910     libmp3lame:tables.obj
 0002:00007990       _t16_5l                    10065990     libmp3lame:tables.obj
 0002:00007ad0       _t5l                       10065ad0     libmp3lame:tables.obj
 0002:00007ae0       _t32HB                     10065ae0     libmp3lame:tables.obj
 0002:00007b00       _t13l                      10065b00     libmp3lame:tables.obj
 0002:00007c00       _t24l                      10065c00     libmp3lame:tables.obj
 0002:00007d00       _t3l                       10065d00     libmp3lame:tables.obj
 0002:00007d0c       _t2HB                      10065d0c     libmp3lame:tables.obj
 0002:00007d20       _t8HB                      10065d20     libmp3lame:tables.obj
 0002:00007d68       _t12l                      10065d68     libmp3lame:tables.obj
 0002:00007da8       _t2l                       10065da8     libmp3lame:tables.obj
 0002:00007db4       _t7l                       10065db4     libmp3lame:tables.obj
 0002:00007dd8       _t7HB                      10065dd8     libmp3lame:tables.obj
 0002:00007e44       ?str@?1??get_lame_version@@9@9 10065e44     libmp3lame:version.obj
 0002:00007e48       ?str@?1??get_lame_short_version@@9@9 10065e48     libmp3lame:version.obj
 0002:00008250       _t10HB                     10066250     libmp3lame:tables.obj
 0002:000082e4       ?str@?1??get_lame_url@@9@9 100662e4     libmp3lame:version.obj
 0002:000082e8       ?strXX@?1??get_lame_os_bitness@@9@9 100662e8     libmp3lame:version.obj
 0002:00008300       _t10l                      10066300     libmp3lame:tables.obj
 0002:00008340       _t33HB                     10066340     libmp3lame:tables.obj
 0002:00008360       ?str32@?1??get_lame_os_bitness@@9@9 10066360     libmp3lame:version.obj
 0002:00008364       ?str64@?1??get_lame_os_bitness@@9@9 10066364     libmp3lame:version.obj
 0002:00008368       _vbr_old_switch_map        10066368     libmp3lame:presets.obj
 0002:00008654       ?sk@?DG@??psymodel_init@@9@9 10066654     libmp3lame:psymodel.obj
 0002:00008680       _vbr_mt_psy_switch_map     10066680     libmp3lame:presets.obj
 0002:00008970       _tab                       10066970     libmp3lame:psymodel.obj
 0002:00008994       _tab_mask_add_delta        10066994     libmp3lame:psymodel.obj
 0002:000089b8       ?table2@?1??vbrpsy_mask_add@@9@9 100669b8     libmp3lame:psymodel.obj
 0002:000089e0       ?fircoef@?3??vbrpsy_attack_detection@@9@9 100669e0     libmp3lame:psymodel.obj
 0002:00008a08       _VBRTag0                   10066a08     libmp3lame:VbrTag.obj
 0002:00008a10       ?regcoef_l@?1??pecalc_l@@9@9 10066a10     libmp3lame:psymodel.obj
 0002:00008a64       _VBRTag1                   10066a64     libmp3lame:VbrTag.obj
 0002:00008a70       ?regcoef_s@?1??pecalc_s@@9@9 10066a70     libmp3lame:psymodel.obj
 0002:000091cc       _payload_long              100671cc     libmp3lame:quantize_pvt.obj
 0002:000091ec       _payload_short             100671ec     libmp3lame:quantize_pvt.obj
 0002:00009388       _crc16_lookup              10067388     libmp3lame:VbrTag.obj
 0002:00009788       _max_range_long_lsf_pretab 10067788     libmp3lame:vbrquantize.obj
 0002:000097a0       _ABYule                    100677a0     libmp3lame:gain_analysis.obj
 0002:00009a94       _huf_tbl_noESC             10067a94     libmp3lame:takehiro.obj
 0002:00009ad0       _ABButter                  10067ad0     libmp3lame:gain_analysis.obj
 0002:00009b84       _MAGIC_INT                 10067b84     libmp3lame:vbrquantize.obj
 0002:00009b88       _MAGIC_FLOAT               10067b88     libmp3lame:vbrquantize.obj
 0002:00009b90       ?fircoef@?BN@??lame_encode_mp3_frame@@9@9 10067b90     libmp3lame:encoder.obj
 0002:00009bb4       _frame_type                10067bb4     libmpg123:id3.obj
 0002:00009bc8       _enc_8bit_range            10067bc8     libmpg123:format.obj
 0002:00009c50       _scale_mixed               10067c50     libmp3lame:takehiro.obj
 0002:00009c90       _subdv_table               10067c90     libmp3lame:takehiro.obj
 0002:00009d48       _enc_float_range           10067d48     libmpg123:format.obj
 0002:00009d50       _slen1_n                   10067d50     libmp3lame:takehiro.obj
 0002:00009d90       _slen2_n                   10067d90     libmp3lame:takehiro.obj
 0002:00009dd0       _count_fncs                10067dd0     libmp3lame:takehiro.obj
 0002:00009e10       _scale_short               10067e10     libmp3lame:takehiro.obj
 0002:00009e50       ?log2tab@?P@??mpeg2_scale_bitcount@@9@9 10067e50     libmp3lame:takehiro.obj
 0002:00009e90       _max_range_sfac_tab        10067e90     libmp3lame:takehiro.obj
 0002:00009ef0       _scale_long                10067ef0     libmp3lame:takehiro.obj
 0002:00009f30       _costab                    10067f30     libmp3lame:fft.obj
 0002:00009f50       _rv_tbl                    10067f50     libmp3lame:fft.obj
 0002:00009fd0       _max_range_short           10067fd0     libmp3lame:vbrquantize.obj
 0002:00009ff8       _alloc_1                   10067ff8     libmpg123:layer2.obj
 0002:0000a4a8       _tab2                      100684a8     libmpg123:layer3.obj
 0002:0000a4d0       _max_range_long            100684d0     libmp3lame:vbrquantize.obj
 0002:0000a4e8       _alloc_0                   100684e8     libmpg123:layer2.obj
 0002:0000a968       _tab0                      10068968     libmpg123:layer3.obj
 0002:0000a970       _enwindow                  10068970     libmp3lame:newmdct.obj
 0002:0000ade4       _tab3                      10068de4     libmpg123:layer3.obj
 0002:0000ae08       _alloc_2                   10068e08     libmpg123:layer2.obj
 0002:0000af48       _freqs                     10068f48     libmpg123:parse.obj
 0002:0000af70       _win                       10068f70     libmp3lame:newmdct.obj
 0002:0000b1b0       _order                     100691b0     libmp3lame:newmdct.obj
 0002:0000b230       _decname                   10069230     libmpg123:optimize.obj
 0002:0000b2b0       _synth_base                100692b0     libmpg123:optimize.obj
 0002:0000b3b0       _encoding_widths           100693b0     libmpg123:id3.obj
 0002:0000b3c0       _text_converters           100693c0     libmpg123:id3.obj
 0002:0000b3d0       _good_encodings            100693d0     libmpg123:format.obj
 0002:0000b400       _my_rates                  10069400     libmpg123:format.obj
 0002:0000b424       ?step@?1??INT123_synth_4to1_s32_i386@@9@9 10069424     libmpg123:synth_s32.obj
 0002:0000b428       ?step@?1??INT123_synth_4to1_s32@@9@9 10069428     libmpg123:synth_s32.obj
 0002:0000b430       _my_encodings              10069430     libmpg123:format.obj
 0002:0000b460       _mulmul                    10069460     libmpg123:layer2.obj
 0002:0000b538       _alloc_4                   10069538     libmpg123:layer2.obj
 0002:0000b848       _alloc_3                   10069848     libmpg123:layer2.obj
 0002:0000ba08       _tab15                     10069a08     libmpg123:layer3.obj
 0002:0000be08       _tab_c1                    10069e08     libmpg123:layer3.obj
 0002:0000be48       _tab9                      10069e48     libmpg123:layer3.obj
 0002:0000bed8       _tab8                      10069ed8     libmpg123:layer3.obj
 0002:0000bf68       _tab10                     10069f68     libmpg123:layer3.obj
 0002:0000c068       _tabsel_123                1006a068     libmpg123:parse.obj
 0002:0000c1e8       ?step@?1??INT123_synth_1to1_s32@@9@9 1006a1e8     libmpg123:synth_s32.obj
 0002:0000c1f0       _ht                        1006a1f0     libmpg123:layer3.obj
 0002:0000c2f0       _tab11                     1006a2f0     libmpg123:layer3.obj
 0002:0000c3f0       _tab5                      1006a3f0     libmpg123:layer3.obj
 0002:0000c430       _tab16                     1006a430     libmpg123:layer3.obj
 0002:0000c830       _bandInfo                  1006a830     libmpg123:layer3.obj
 0002:0000cc10       _tab6                      1006ac10     libmpg123:layer3.obj
 0002:0000cc50       _tab12                     1006ac50     libmpg123:layer3.obj
 0002:0000cd50       _tab24                     1006ad50     libmpg123:layer3.obj
 0002:0000d150       _tab7                      1006b150     libmpg123:layer3.obj
 0002:0000d1e0       _htc                       1006b1e0     libmpg123:layer3.obj
 0002:0000d1f0       _tab_c0                    1006b1f0     libmpg123:layer3.obj
 0002:0000d230       _tab13                     1006b230     libmpg123:layer3.obj
 0002:0000d630       _tab1                      1006b630     libmpg123:layer3.obj
 0002:0000d640       _intwinbase                1006b640     libmpg123:tabinit.obj
 0002:0000da44       ?step@?1??INT123_synth_2to1_s32_i386@@9@9 1006ba44     libmpg123:synth_s32.obj
 0002:0000da48       ?step@?1??INT123_synth_2to1_s32@@9@9 1006ba48     libmpg123:synth_s32.obj
 0002:0000da64       ?step@?1??INT123_synth_1to1_s32_i386@@9@9 1006ba64     libmpg123:synth_s32.obj
 0002:0000da68       ?step@?1??INT123_synth_ntom_s32@@9@9 1006ba68     libmpg123:synth_s32.obj
 0002:0000da6c       ?step@?1??INT123_synth_4to1_i386@@9@9 1006ba6c     libmpg123:synth.obj
 0002:0000da70       ?step@?1??INT123_synth_2to1_i386@@9@9 1006ba70     libmpg123:synth.obj
 0002:0000da74       ?step@?1??INT123_synth_4to1@@9@9 1006ba74     libmpg123:synth.obj
 0002:0000da78       ?step@?1??INT123_synth_1to1_i386@@9@9 1006ba78     libmpg123:synth.obj
 0002:0000da7c       ?step@?1??INT123_synth_ntom@@9@9 1006ba7c     libmpg123:synth.obj
 0002:0000da80       ?step@?1??INT123_synth_1to1@@9@9 1006ba80     libmpg123:synth.obj
 0002:0000da84       ?step@?1??INT123_synth_2to1@@9@9 1006ba84     libmpg123:synth.obj
 0002:0000da88       ?step@?1??INT123_synth_2to1_real_i386@@9@9 1006ba88     libmpg123:synth_real.obj
 0002:0000da8c       ?step@?1??INT123_synth_4to1_real_i386@@9@9 1006ba8c     libmpg123:synth_real.obj
 0002:0000da90       ?step@?1??INT123_synth_ntom_real@@9@9 1006ba90     libmpg123:synth_real.obj
 0002:0000da94       ?step@?1??INT123_synth_2to1_real@@9@9 1006ba94     libmpg123:synth_real.obj
 0002:0000da98       ?step@?1??INT123_synth_4to1_real@@9@9 1006ba98     libmpg123:synth_real.obj
 0002:0000da9c       ?step@?1??INT123_synth_1to1_real@@9@9 1006ba9c     libmpg123:synth_real.obj
 0002:0000daa0       ?step@?1??INT123_synth_1to1_real_i386@@9@9 1006baa0     libmpg123:synth_real.obj
 0002:0000daa4       ?step@?1??INT123_synth_1to1_8bit_i386@@9@9 1006baa4     libmpg123:synth_8bit.obj
 0002:0000daa8       ?step@?1??INT123_synth_4to1_8bit_i386@@9@9 1006baa8     libmpg123:synth_8bit.obj
 0002:0000daac       ?step@?1??INT123_synth_2to1_8bit_i386@@9@9 1006baac     libmpg123:synth_8bit.obj
 0002:0000dab0       ?step@?1??INT123_synth_2to1_8bit@@9@9 1006bab0     libmpg123:synth_8bit.obj
 0002:0000dab4       ?step@?1??INT123_synth_1to1_8bit@@9@9 1006bab4     libmpg123:synth_8bit.obj
 0002:0000dab8       ?step@?1??INT123_synth_ntom_8bit@@9@9 1006bab8     libmpg123:synth_8bit.obj
 0002:0000dabc       ?step@?1??INT123_synth_4to1_8bit@@9@9 1006babc     libmpg123:synth_8bit.obj
 0002:00012520       _Int32ToUInt32             10070520     LIBCMT:_ftol3_.obj
 0002:00012528       _DP2to32                   10070528     LIBCMT:_ftol3_.obj
 0002:00012530       _MantissaMask              10070530     LIBCMT:_ftol3_.obj
 0002:00012538       _IntegerBit                10070538     LIBCMT:_ftol3_.obj
 0002:00012540       _SignBit64                 10070540     LIBCMT:_ftol3_.obj
 0002:00012548       _MinFP64                   10070548     LIBCMT:_ftol3_.obj
 0002:00012550       _MinInt64                  10070550     LIBCMT:_ftol3_.obj
 0002:00012558       _MaxInt64                  10070558     LIBCMT:_ftol3_.obj
 0002:00012560       _MaxUInt64                 10070560     LIBCMT:_ftol3_.obj
 0002:00012568       _MaxFP32                   10070568     LIBCMT:_ftol3_.obj
 0002:00012570       _MinFP32                   10070570     LIBCMT:_ftol3_.obj
 0002:00012578       _MinSubInexact             10070578     LIBCMT:_ftol3_.obj
 0002:00012580       _FpExcptTable              10070580     LIBCMT:_ftol3_.obj
 0002:00012590       _i1075                     10070590     LIBCMT:_ftol3_.obj
 0002:00012594       _i1087                     10070594     LIBCMT:_ftol3_.obj
 0002:00012598       _x0800                     10070598     LIBCMT:_ftol3_.obj
 0002:0001259c       _x17FF                     1007059c     LIBCMT:_ftol3_.obj
 0002:000125a0       _CWMask                    100705a0     LIBCMT:_ftol3_.obj
 0002:000125b0       _static_const_table        100705b0     LIBCMT:_svml_dpow2_sse2_.obj
 0002:00019040       _2il0floatpacket_5         10077040     LIBCMT:_svml_dpow2_sse2_.obj
 0002:00019048       _2il0floatpacket_6         10077048     LIBCMT:_svml_dpow2_sse2_.obj
 0002:00019050       _mexp                      10077050     libucrt:atan_sse2_precise.obj
 0002:00019060       _mabs                      10077060     libucrt:atan_sse2_precise.obj
 0002:00019070       _pi_2d                     10077070     libucrt:atan_sse2_precise.obj
 0002:00019080       _d1400                     10077080     libucrt:atan_sse2_precise.obj
 0002:00019090       _d1213                     10077090     libucrt:atan_sse2_precise.obj
 0002:000190a0       _d1011                     100770a0     libucrt:atan_sse2_precise.obj
 0002:000190b0       _d89                       100770b0     libucrt:atan_sse2_precise.obj
 0002:000190c0       _d67                       100770c0     libucrt:atan_sse2_precise.obj
 0002:000190d0       _d45                       100770d0     libucrt:atan_sse2_precise.obj
 0002:000190e0       _d23                       100770e0     libucrt:atan_sse2_precise.obj
 0002:000190f0       _d01                       100770f0     libucrt:atan_sse2_precise.obj
 0002:00019100       _p60                       10077100     libucrt:atan_sse2_precise.obj
 0002:00019110       _p45                       10077110     libucrt:atan_sse2_precise.obj
 0002:00019120       _p23                       10077120     libucrt:atan_sse2_precise.obj
 0002:00019130       _p01                       10077130     libucrt:atan_sse2_precise.obj
 0002:00019140       _qnan_bit                  10077140     libucrt:atan_sse2_precise.obj
 0002:00019148       _cntshf                    10077148     libucrt:atan_sse2_precise.obj
 0002:00019150       _zero                      10077150     libucrt:atan_sse2_precise.obj
 0002:00019158       _onen                      10077158     libucrt:atan_sse2_precise.obj
 0002:00019160       _one                       10077160     libucrt:atan_sse2_precise.obj
 0002:00019168       _cnst8                     10077168     libucrt:atan_sse2_precise.obj
 0002:00019170       _in3                       10077170     libucrt:atan_sse2_precise.obj
 0002:00019178       _in2                       10077178     libucrt:atan_sse2_precise.obj
 0002:00019180       _in1                       10077180     libucrt:atan_sse2_precise.obj
 0002:00019188       _in0                       10077188     libucrt:atan_sse2_precise.obj
 0002:00019190       _in                        10077190     libucrt:atan_sse2_precise.obj
 0002:00019198       _minval                    10077198     libucrt:atan_sse2_precise.obj
 0002:000191a0       libm_small                 100771a0     libucrt:atan_sse2_precise.obj
 0002:000191b0       SC_1                       100771b0     libucrt:cos_sse2_precise.obj
 0002:000191c0       SC_2                       100771c0     libucrt:cos_sse2_precise.obj
 0002:000191d0       SC_3                       100771d0     libucrt:cos_sse2_precise.obj
 0002:000191e0       SC_4                       100771e0     libucrt:cos_sse2_precise.obj
 0002:000191f0       PI32INV                    100771f0     libucrt:cos_sse2_precise.obj
 0002:000191f8       SHIFTER                    100771f8     libucrt:cos_sse2_precise.obj
 0002:00019200       P_2                        10077200     libucrt:cos_sse2_precise.obj
 0002:00019210       P_1                        10077210     libucrt:cos_sse2_precise.obj
 0002:00019218       P_3                        10077218     libucrt:cos_sse2_precise.obj
 0002:00019220       TWO_POW_55                 10077220     libucrt:cos_sse2_precise.obj
 0002:00019228       TWO_POW_M55                10077228     libucrt:cos_sse2_precise.obj
 0002:00019230       ALL_ONES                   10077230     libucrt:cos_sse2_precise.obj
 0002:00019238       NEG_ZERO                   10077238     libucrt:cos_sse2_precise.obj
 0002:00019240       ONE                        10077240     libucrt:cos_sse2_precise.obj
 0002:00019250       SIGN_MASK                  10077250     libucrt:cos_sse2_precise.obj
 0002:00019260       smask                      10077260     libucrt:exp_sse2_precise.obj
 0002:00019270       emask                      10077270     libucrt:exp_sse2_precise.obj
 0002:00019280       mmask                      10077280     libucrt:exp_sse2_precise.obj
 0002:00019290       bias                       10077290     libucrt:exp_sse2_precise.obj
 0002:000192a0       Shifter                    100772a0     libucrt:exp_sse2_precise.obj
 0002:000192b0       twom60                     100772b0     libucrt:exp_sse2_precise.obj
 0002:000192c0       cv                         100772c0     libucrt:exp_sse2_precise.obj
 0002:00019310       ONE_val                    10077310     libucrt:exp_sse2_precise.obj
 0002:00019318       EMIN                       10077318     libucrt:exp_sse2_precise.obj
 0002:00019320       MAX_ARG                    10077320     libucrt:exp_sse2_precise.obj
 0002:00019328       MIN_ARG                    10077328     libucrt:exp_sse2_precise.obj
 0002:00019330       INF                        10077330     libucrt:exp_sse2_precise.obj
 0002:00019338       QNAN_BIT                   10077338     libucrt:exp_sse2_precise.obj
 0002:00019340       ZERO                       10077340     libucrt:exp_sse2_precise.obj
 0002:00019348       XMAX                       10077348     libucrt:exp_sse2_precise.obj
 0002:00019350       XMIN                       10077350     libucrt:exp_sse2_precise.obj
 0002:00019358       Sm_Thres                   10077358     libucrt:exp_sse2_precise.obj
 0002:00019360       Del_Thres                  10077360     libucrt:exp_sse2_precise.obj
 0002:00019370       emask                      10077370     libucrt:log10_sse2_precise.obj
 0002:00019380       CC                         10077380     libucrt:log10_sse2_precise.obj
 0002:00019390       Magic                      10077390     libucrt:log10_sse2_precise.obj
 0002:000193a0       hi_mask                    100773a0     libucrt:log10_sse2_precise.obj
 0002:000193b0       LOG10_2                    100773b0     libucrt:log10_sse2_precise.obj
 0002:000193c0       place_L                    100773c0     libucrt:log10_sse2_precise.obj
 0002:000193e0       One                        100773e0     libucrt:log10_sse2_precise.obj
 0002:000193f0       Zero                       100773f0     libucrt:log10_sse2_precise.obj
 0002:00019400       Two52                      10077400     libucrt:log10_sse2_precise.obj
 0002:00019410       Infs                       10077410     libucrt:log10_sse2_precise.obj
 0002:00019420       NaN                        10077420     libucrt:log10_sse2_precise.obj
 0002:00019430       coeff                      10077430     libucrt:log10_sse2_precise.obj
 0002:00019470       emask                      10077470     libucrt:log_sse2_precise.obj
 0002:00019480       Magic                      10077480     libucrt:log_sse2_precise.obj
 0002:00019490       hi_mask                    10077490     libucrt:log_sse2_precise.obj
 0002:000194a0       LOG_2                      100774a0     libucrt:log_sse2_precise.obj
 0002:000194b0       place_L                    100774b0     libucrt:log_sse2_precise.obj
 0002:000194d0       One                        100774d0     libucrt:log_sse2_precise.obj
 0002:000194e0       Zero                       100774e0     libucrt:log_sse2_precise.obj
 0002:000194f0       Two52                      100774f0     libucrt:log_sse2_precise.obj
 0002:00019500       Infs                       10077500     libucrt:log_sse2_precise.obj
 0002:00019510       NaN                        10077510     libucrt:log_sse2_precise.obj
 0002:00019520       coeff                      10077520     libucrt:log_sse2_precise.obj
 0002:00019550       Shifter                    10077550     libucrt:pow_sse2_precise.obj
 0002:00019560       SIGMASK                    10077560     libucrt:pow_sse2_precise.obj
 0002:00019570       ONEMASK                    10077570     libucrt:pow_sse2_precise.obj
 0002:00019580       ABSVALMASK                 10077580     libucrt:pow_sse2_precise.obj
 0002:00019590       cev                        10077590     libucrt:pow_sse2_precise.obj
 0002:000195b8       HALFSIG                    100775b8     libucrt:pow_sse2_precise.obj
 0002:000195c0       LHN                        100775c0     libucrt:pow_sse2_precise.obj
 0002:000195c8       sNaN                       100775c8     libucrt:pow_sse2_precise.obj
 0002:000195d0       INF                        100775d0     libucrt:pow_sse2_precise.obj
 0002:000195d8       NEG_INF                    100775d8     libucrt:pow_sse2_precise.obj
 0002:000195e0       NEG_ZERO                   100775e0     libucrt:pow_sse2_precise.obj
 0002:000195e8       NEG_BIG                    100775e8     libucrt:pow_sse2_precise.obj
 0002:000195f0       POS_BIG                    100775f0     libucrt:pow_sse2_precise.obj
 0002:000195f8       EMIN                       100775f8     libucrt:pow_sse2_precise.obj
 0002:00019600       QIND                       10077600     libucrt:pow_sse2_precise.obj
 0002:00019610       SC_1                       10077610     libucrt:sin_sse2_precise.obj
 0002:00019620       SC_2                       10077620     libucrt:sin_sse2_precise.obj
 0002:00019630       SC_3                       10077630     libucrt:sin_sse2_precise.obj
 0002:00019640       SC_4                       10077640     libucrt:sin_sse2_precise.obj
 0002:00019650       PI32INV                    10077650     libucrt:sin_sse2_precise.obj
 0002:00019658       SHIFTER                    10077658     libucrt:sin_sse2_precise.obj
 0002:00019660       P_2                        10077660     libucrt:sin_sse2_precise.obj
 0002:00019670       P_1                        10077670     libucrt:sin_sse2_precise.obj
 0002:00019678       P_3                        10077678     libucrt:sin_sse2_precise.obj
 0002:00019680       TWO_POW_55                 10077680     libucrt:sin_sse2_precise.obj
 0002:00019688       TWO_POW_M55                10077688     libucrt:sin_sse2_precise.obj
 0002:00019690       ALL_ONES                   10077690     libucrt:sin_sse2_precise.obj
 0002:00019698       NEG_ZERO                   10077698     libucrt:sin_sse2_precise.obj
 0002:000196a0       ONE                        100776a0     libucrt:sin_sse2_precise.obj
 0002:000196b0       PI32INV                    100776b0     libucrt:tan_sse2_precise.obj
 0002:000196c0       SHIFTER                    100776c0     libucrt:tan_sse2_precise.obj
 0002:000196d0       P_1                        100776d0     libucrt:tan_sse2_precise.obj
 0002:000196e0       P_2                        100776e0     libucrt:tan_sse2_precise.obj
 0002:000196f0       P_3                        100776f0     libucrt:tan_sse2_precise.obj
 0002:00019700       QQ_2                       10077700     libucrt:tan_sse2_precise.obj
 0002:00019708       ONE                        10077708     libucrt:tan_sse2_precise.obj
 0002:00019710       MASK_35                    10077710     libucrt:tan_sse2_precise.obj
 0002:00019720       sign_mask                  10077720     libucrt:tan_sse2_precise.obj
 0002:00019728       TWO_POW_55                 10077728     libucrt:tan_sse2_precise.obj
 0002:00019730       TWO_POW_M55                10077730     libucrt:tan_sse2_precise.obj
 0002:00019738       TWO_POW_M53                10077738     libucrt:tan_sse2_precise.obj
 0002:00019740       INF                        10077740     libucrt:tan_sse2_precise.obj
 0002:00019750       _One                       10077750     libucrt:floor_pentium4.obj
 0002:00019760       _Bns                       10077760     libucrt:floor_pentium4.obj
 0002:00019770       _NegOne                    10077770     libucrt:floor_pentium4.obj
 0002:00019780       _NegZero                   10077780     libucrt:floor_pentium4.obj
 0002:00019790       _S                         10077790     libucrt:floor_pentium4.obj
 0002:000197a0       _NAME_                     100777a0     libucrt:atan.obj
 0002:0001afc0       _NAME_                     10078fc0     libucrt:cos.obj
 0002:0001bbd0       LOG_name                   10079bd0     libucrt:log.obj
 0002:0001c400       POW_name                   1007a400     libucrt:pow.obj
 0002:0001fc90       _NAME_                     1007dc90     libucrt:sin.obj
 0002:0001fca0       _NAME_                     1007dca0     libucrt:sqrt.obj
 0002:0001fcb0       _NAME_                     1007dcb0     libucrt:tan.obj
 0002:000212c0       _mexp                      1007f2c0     libucrt:atan_pentium4.obj
 0002:000212d0       _mabs                      1007f2d0     libucrt:atan_pentium4.obj
 0002:000212e0       _pi_2d                     1007f2e0     libucrt:atan_pentium4.obj
 0002:000212f0       _d1400                     1007f2f0     libucrt:atan_pentium4.obj
 0002:00021300       _d1213                     1007f300     libucrt:atan_pentium4.obj
 0002:00021310       _d1011                     1007f310     libucrt:atan_pentium4.obj
 0002:00021320       _d89                       1007f320     libucrt:atan_pentium4.obj
 0002:00021330       _d67                       1007f330     libucrt:atan_pentium4.obj
 0002:00021340       _d45                       1007f340     libucrt:atan_pentium4.obj
 0002:00021350       _d23                       1007f350     libucrt:atan_pentium4.obj
 0002:00021360       _d01                       1007f360     libucrt:atan_pentium4.obj
 0002:00021370       _p60                       1007f370     libucrt:atan_pentium4.obj
 0002:00021380       _p45                       1007f380     libucrt:atan_pentium4.obj
 0002:00021390       _p23                       1007f390     libucrt:atan_pentium4.obj
 0002:000213a0       _p01                       1007f3a0     libucrt:atan_pentium4.obj
 0002:000213b0       _cntshf                    1007f3b0     libucrt:atan_pentium4.obj
 0002:000213b8       _zero                      1007f3b8     libucrt:atan_pentium4.obj
 0002:000213c0       _onen                      1007f3c0     libucrt:atan_pentium4.obj
 0002:000213c8       _one                       1007f3c8     libucrt:atan_pentium4.obj
 0002:000213d0       _cnst8                     1007f3d0     libucrt:atan_pentium4.obj
 0002:000213d8       _in3                       1007f3d8     libucrt:atan_pentium4.obj
 0002:000213e0       _in2                       1007f3e0     libucrt:atan_pentium4.obj
 0002:000213e8       _in1                       1007f3e8     libucrt:atan_pentium4.obj
 0002:000213f0       _in0                       1007f3f0     libucrt:atan_pentium4.obj
 0002:000213f8       _in                        1007f3f8     libucrt:atan_pentium4.obj
 0002:00021400       _minval                    1007f400     libucrt:atan_pentium4.obj
 0002:00021408       libm_small                 1007f408     libucrt:atan_pentium4.obj
 0002:00021410       SC_1                       1007f410     libucrt:cos_pentium4.obj
 0002:00021420       SC_2                       1007f420     libucrt:cos_pentium4.obj
 0002:00021430       SC_3                       1007f430     libucrt:cos_pentium4.obj
 0002:00021440       SC_4                       1007f440     libucrt:cos_pentium4.obj
 0002:00021450       PI32INV                    1007f450     libucrt:cos_pentium4.obj
 0002:00021458       SHIFTER                    1007f458     libucrt:cos_pentium4.obj
 0002:00021460       P_2                        1007f460     libucrt:cos_pentium4.obj
 0002:00021470       P_1                        1007f470     libucrt:cos_pentium4.obj
 0002:00021478       P_3                        1007f478     libucrt:cos_pentium4.obj
 0002:00021480       TWO_POW_55                 1007f480     libucrt:cos_pentium4.obj
 0002:00021488       TWO_POW_M55                1007f488     libucrt:cos_pentium4.obj
 0002:00021490       ALL_ONES                   1007f490     libucrt:cos_pentium4.obj
 0002:00021498       NEG_ZERO                   1007f498     libucrt:cos_pentium4.obj
 0002:000214a0       ONE                        1007f4a0     libucrt:cos_pentium4.obj
 0002:000214b0       SIGN_MASK                  1007f4b0     libucrt:cos_pentium4.obj
 0002:000214c0       smask                      1007f4c0     libucrt:exp_pentium4.obj
 0002:000214d0       emask                      1007f4d0     libucrt:exp_pentium4.obj
 0002:000214e0       mmask                      1007f4e0     libucrt:exp_pentium4.obj
 0002:000214f0       bias                       1007f4f0     libucrt:exp_pentium4.obj
 0002:00021500       Shifter                    1007f500     libucrt:exp_pentium4.obj
 0002:00021510       twom60                     1007f510     libucrt:exp_pentium4.obj
 0002:00021520       cv                         1007f520     libucrt:exp_pentium4.obj
 0002:00021570       ONE_val                    1007f570     libucrt:exp_pentium4.obj
 0002:00021578       EMIN                       1007f578     libucrt:exp_pentium4.obj
 0002:00021580       MAX_ARG                    1007f580     libucrt:exp_pentium4.obj
 0002:00021588       MIN_ARG                    1007f588     libucrt:exp_pentium4.obj
 0002:00021590       INF                        1007f590     libucrt:exp_pentium4.obj
 0002:00021598       ZERO                       1007f598     libucrt:exp_pentium4.obj
 0002:000215a0       XMAX                       1007f5a0     libucrt:exp_pentium4.obj
 0002:000215a8       XMIN                       1007f5a8     libucrt:exp_pentium4.obj
 0002:000215b0       Sm_Thres                   1007f5b0     libucrt:exp_pentium4.obj
 0002:000215b8       Del_Thres                  1007f5b8     libucrt:exp_pentium4.obj
 0002:000215c0       DblMax                     1007f5c0     libucrt:87cdisp.obj
 0002:000215c8       DblMin                     1007f5c8     libucrt:87cdisp.obj
 0002:000215d0       IeeeAdjO                   1007f5d0     libucrt:87cdisp.obj
 0002:000215d8       IeeeAdjU                   1007f5d8     libucrt:87cdisp.obj
 0002:000215e0       _infinity                  1007f5e0     libucrt:87cdisp.obj
 0002:000215e8       _zero                      1007f5e8     libucrt:87cdisp.obj
 0002:000215f0       emask                      1007f5f0     libucrt:log_pentium4.obj
 0002:00021600       Magic                      1007f600     libucrt:log_pentium4.obj
 0002:00021610       hi_mask                    1007f610     libucrt:log_pentium4.obj
 0002:00021620       LOG_2                      1007f620     libucrt:log_pentium4.obj
 0002:00021630       place_L                    1007f630     libucrt:log_pentium4.obj
 0002:00021650       One                        1007f650     libucrt:log_pentium4.obj
 0002:00021660       Zero                       1007f660     libucrt:log_pentium4.obj
 0002:00021670       Two52                      1007f670     libucrt:log_pentium4.obj
 0002:00021680       Infs                       1007f680     libucrt:log_pentium4.obj
 0002:00021690       NaN                        1007f690     libucrt:log_pentium4.obj
 0002:000216a0       coeff                      1007f6a0     libucrt:log_pentium4.obj
 0002:000216d0       Shifter                    1007f6d0     libucrt:pow_pentium4.obj
 0002:000216e0       SIGMASK                    1007f6e0     libucrt:pow_pentium4.obj
 0002:000216f0       ONEMASK                    1007f6f0     libucrt:pow_pentium4.obj
 0002:00021700       ABSVALMASK                 1007f700     libucrt:pow_pentium4.obj
 0002:00021710       cev                        1007f710     libucrt:pow_pentium4.obj
 0002:00021738       HALFSIG                    1007f738     libucrt:pow_pentium4.obj
 0002:00021740       LHN                        1007f740     libucrt:pow_pentium4.obj
 0002:00021748       sNaN                       1007f748     libucrt:pow_pentium4.obj
 0002:00021750       INF                        1007f750     libucrt:pow_pentium4.obj
 0002:00021758       NEG_INF                    1007f758     libucrt:pow_pentium4.obj
 0002:00021760       NEG_ZERO                   1007f760     libucrt:pow_pentium4.obj
 0002:00021768       NEG_BIG                    1007f768     libucrt:pow_pentium4.obj
 0002:00021770       POS_BIG                    1007f770     libucrt:pow_pentium4.obj
 0002:00021778       EMIN                       1007f778     libucrt:pow_pentium4.obj
 0002:00021780       QIND                       1007f780     libucrt:pow_pentium4.obj
 0002:00021790       SC_1                       1007f790     libucrt:sin_pentium4.obj
 0002:000217a0       SC_2                       1007f7a0     libucrt:sin_pentium4.obj
 0002:000217b0       SC_3                       1007f7b0     libucrt:sin_pentium4.obj
 0002:000217c0       SC_4                       1007f7c0     libucrt:sin_pentium4.obj
 0002:000217d0       PI32INV                    1007f7d0     libucrt:sin_pentium4.obj
 0002:000217d8       SHIFTER                    1007f7d8     libucrt:sin_pentium4.obj
 0002:000217e0       P_2                        1007f7e0     libucrt:sin_pentium4.obj
 0002:000217f0       P_1                        1007f7f0     libucrt:sin_pentium4.obj
 0002:000217f8       P_3                        1007f7f8     libucrt:sin_pentium4.obj
 0002:00021800       TWO_POW_55                 1007f800     libucrt:sin_pentium4.obj
 0002:00021808       TWO_POW_M55                1007f808     libucrt:sin_pentium4.obj
 0002:00021810       ALL_ONES                   1007f810     libucrt:sin_pentium4.obj
 0002:00021818       NEG_ZERO                   1007f818     libucrt:sin_pentium4.obj
 0002:00021820       ONE                        1007f820     libucrt:sin_pentium4.obj
 0002:00021830       PI32INV                    1007f830     libucrt:tan_pentium4.obj
 0002:00021840       SHIFTER                    1007f840     libucrt:tan_pentium4.obj
 0002:00021850       P_1                        1007f850     libucrt:tan_pentium4.obj
 0002:00021860       P_2                        1007f860     libucrt:tan_pentium4.obj
 0002:00021870       P_3                        1007f870     libucrt:tan_pentium4.obj
 0002:00021880       QQ_2                       1007f880     libucrt:tan_pentium4.obj
 0002:00021888       ONE                        1007f888     libucrt:tan_pentium4.obj
 0002:00021890       MASK_35                    1007f890     libucrt:tan_pentium4.obj
 0002:000218a0       sign_mask                  1007f8a0     libucrt:tan_pentium4.obj
 0002:000218a8       TWO_POW_55                 1007f8a8     libucrt:tan_pentium4.obj
 0002:000218b0       TWO_POW_M55                1007f8b0     libucrt:tan_pentium4.obj
 0002:000218b8       TWO_POW_M53                1007f8b8     libucrt:tan_pentium4.obj
 0002:000218c0       INF                        1007f8c0     libucrt:tan_pentium4.obj
 0002:00021e30       __sehtable$?dllmain_crt_process_attach@@YAHQAUHINSTANCE__@@QAX@Z 1007fe30     LIBCMT:dll_dllmain.obj
 0002:00021e50       __sehtable$?dllmain_crt_process_detach@@YAH_N@Z 1007fe50     LIBCMT:dll_dllmain.obj
 0002:00021e70       __sehtable$?dllmain_dispatch@@YAHQAUHINSTANCE__@@KQAX@Z 1007fe70     LIBCMT:dll_dllmain.obj
 0002:00021f20       __sehtable$___scrt_is_nonwritable_in_current_image 1007ff20     LIBCMT:utility.obj
 0002:00021f40       __sehtable$??$?RV<lambda_db08b09ef7aa9d4f8620ce68402612bc>@@AAV<lambda_4f2c1eaeead2a5fc776db5b62ea0fb9b>@@V<lambda_3ae262bc35d4ba6a3825c4f6bcaaf95c>@@@?$__crt_seh_guarded_call@H@@QAEH$$QAV<lambda_db08b09ef7aa9d4f8620ce68402612bc>@@AAV<lambda_4f2c1eaeead2a5fc776db5b62ea0fb9b>@@$$QAV<lambda_3ae262bc35d4ba6a3825c4f6bcaaf95c>@@@Z 1007ff40     libucrt:output.obj
 0002:00021f60       __sehtable$_fflush         1007ff60     libucrt:fflush.obj
 0002:00021f80       __sehtable$_common_flush_all 1007ff80     libucrt:fflush.obj
 0002:00021fa8       __sehtable$?common_exit@@YAXHW4_crt_exit_cleanup_mode@@W4_crt_exit_return_mode@@@Z 1007ffa8     libucrt:exit.obj
 0002:00021fd0       __sehtable$??$?RV<lambda_123407a5e2ac06da108355a851863b7a>@@AAV<lambda_2fe9b910cf3cbf4a0ab98a02ba45b3ec>@@V<lambda_ae55bdf541ad94d75914d381c370e64d>@@@?$__crt_seh_guarded_call@H@@QAEH$$QAV<lambda_123407a5e2ac06da108355a851863b7a>@@AAV<lambda_2fe9b910cf3cbf4a0ab98a02ba45b3ec>@@$$QAV<lambda_ae55bdf541ad94d75914d381c370e64d>@@@Z 1007ffd0     libucrt:close.obj
 0002:00021ff0       __sehtable$__query_new_handler 1007fff0     libucrt:new_handler.obj
 0002:00022010       __sehtable$??$?RV<lambda_800076c951b434888f4765a74a194fcc>@@AAV<lambda_4e60a939b0d047cfe11ddc22648dfba9>@@V<lambda_6dbb1268764f43b569ce7b67e331d33a>@@@?$__crt_seh_guarded_call@H@@QAEH$$QAV<lambda_800076c951b434888f4765a74a194fcc>@@AAV<lambda_4e60a939b0d047cfe11ddc22648dfba9>@@$$QAV<lambda_6dbb1268764f43b569ce7b67e331d33a>@@@Z 10080010     libucrt:onexit.obj
 0002:00022030       __sehtable$??$?RV<lambda_995298e7d72eb4c2aab26c0585b3abe5>@@AAV<lambda_275893d493268fdec8709772e3fcec0e>@@V<lambda_293819299cbf9a7022e18b56a874bb5c>@@@?$__crt_seh_guarded_call@H@@QAEH$$QAV<lambda_995298e7d72eb4c2aab26c0585b3abe5>@@AAV<lambda_275893d493268fdec8709772e3fcec0e>@@$$QAV<lambda_293819299cbf9a7022e18b56a874bb5c>@@@Z 10080030     libucrt:onexit.obj
 0002:00022050       __sehtable$_terminate      10080050     libucrt:terminate.obj
 0002:00022070       __sehtable$__read          10080070     libucrt:read.obj
 0002:00022090       __sehtable$??$common_lseek@J@@YAJHJH@Z 10080090     libucrt:lseek.obj
 0002:000220b0       __sehtable$??$common_lseek@_J@@YA_JH_JH@Z 100800b0     libucrt:lseek.obj
 0002:000220d0       __sehtable$_raise          100800d0     libucrt:signal.obj
 0002:000220f0       __sehtable$??$?RV<lambda_a048d3beccc847880fc8490e18b82769>@@AAV<lambda_ec61778202f4f5fc7e7711acc23c3bca>@@V<lambda_f7496a158712204296dd6628a163878e>@@@?$__crt_seh_guarded_call@P6AXH@Z@@QAEP6AXH@Z$$QAV<lambda_a048d3beccc847880fc8490e18b82769>@@AAV<lambda_ec61778202f4f5fc7e7711acc23c3bca>@@$$QAV<lambda_f7496a158712204296dd6628a163878e>@@@Z 100800f0     libucrt:signal.obj
 0002:00022110       __sehtable$??$?RV<lambda_9df27f884b057bc3edfc946cb5b7cf47>@@AAV<lambda_e69574bed617af4e071282c136b37893>@@V<lambda_cc0d902bcbbeb830f749456577db4721>@@@?$__crt_seh_guarded_call@X@@QAEX$$QAV<lambda_9df27f884b057bc3edfc946cb5b7cf47>@@AAV<lambda_e69574bed617af4e071282c136b37893>@@$$QAV<lambda_cc0d902bcbbeb830f749456577db4721>@@@Z 10080110     libucrt:per_thread_data.obj
 0002:00022130       __sehtable$??$?RV<lambda_3518db117f0e7cdb002338c5d3c47b6c>@@AAV<lambda_b2ea41f6bbb362cd97d94c6828d90b61>@@V<lambda_abdedf541bb04549bc734292b4a045d4>@@@?$__crt_seh_guarded_call@X@@QAEX$$QAV<lambda_3518db117f0e7cdb002338c5d3c47b6c>@@AAV<lambda_b2ea41f6bbb362cd97d94c6828d90b61>@@$$QAV<lambda_abdedf541bb04549bc734292b4a045d4>@@@Z 10080130     libucrt:per_thread_data.obj
 0002:00022150       __sehtable$??$?RV<lambda_51b6e8b1eb166f2a3faf91f424b38130>@@AAV<lambda_6250bd4b2a391816dd638c3bf72b0bcb>@@V<lambda_0b5a4a3e68152e1d9b943535f5f47bed>@@@?$__crt_seh_guarded_call@X@@QAEX$$QAV<lambda_51b6e8b1eb166f2a3faf91f424b38130>@@AAV<lambda_6250bd4b2a391816dd638c3bf72b0bcb>@@$$QAV<lambda_0b5a4a3e68152e1d9b943535f5f47bed>@@@Z 10080150     libucrt:per_thread_data.obj
 0002:00022170       __sehtable$??$?RV<lambda_5b71d36f03204c0beab531769a5b5694>@@AAV<lambda_be2b3da3f62db62e9dad5dc70221a656>@@V<lambda_8f9ce462984622f9bf76b59e2aaaf805>@@@?$__crt_seh_guarded_call@X@@QAEX$$QAV<lambda_5b71d36f03204c0beab531769a5b5694>@@AAV<lambda_be2b3da3f62db62e9dad5dc70221a656>@@$$QAV<lambda_8f9ce462984622f9bf76b59e2aaaf805>@@@Z 10080170     libucrt:per_thread_data.obj
 0002:00022190       __sehtable$___acrt_uninitialize_locale 10080190     libucrt:wsetlocale.obj
 0002:000221b0       __sehtable$___acrt_initialize_lowio 100801b0     libucrt:ioinit.obj
 0002:000221d0       __sehtable$__fcloseall     100801d0     libucrt:closeall.obj
 0002:000221f0       __sehtable$??$?RV<lambda_61cee617f5178ae960314fd4d05640a0>@@AAV<lambda_6978c1fb23f02e42e1d9e99668cc68aa>@@V<lambda_9cd88cf8ad10232537feb2133f08c833>@@@?$__crt_seh_guarded_call@H@@QAEH$$QAV<lambda_61cee617f5178ae960314fd4d05640a0>@@AAV<lambda_6978c1fb23f02e42e1d9e99668cc68aa>@@$$QAV<lambda_9cd88cf8ad10232537feb2133f08c833>@@@Z 100801f0     libucrt:commit.obj
 0002:00022210       __sehtable$__write         10080210     libucrt:write.obj
 0002:00022230       __sehtable$___acrt_lowio_ensure_fh_exists 10080230     libucrt:osfinfo.obj
 0002:00022250       __sehtable$___acrt_update_thread_multibyte_data 10080250     libucrt:mbctype.obj
 0002:00022270       __sehtable$??$?RV<lambda_978dc153c237d78434369da87b74ff60>@@AAV<lambda_ad1ced32f4ac17aa236e5ef05d6b3b7c>@@V<lambda_4a8533e2866a575feecb8298ce776b0d>@@@?$__crt_seh_guarded_call@X@@QAEX$$QAV<lambda_978dc153c237d78434369da87b74ff60>@@AAV<lambda_ad1ced32f4ac17aa236e5ef05d6b3b7c>@@$$QAV<lambda_4a8533e2866a575feecb8298ce776b0d>@@@Z 10080270     libucrt:mbctype.obj
 0002:00022290       __sehtable$___acrt_update_thread_locale_data 10080290     libucrt:locale_refcounting.obj
 0002:000222b0       __sehtable$_fclose         100802b0     libucrt:fclose.obj
 0002:000222d0       __sehtable$__IsNonwritableInCurrentImage 100802d0     LIBCMT:pesect.obj
 0002:000230f0       .edata                     100810f0     bindings.exp
 0002:00023118       rgpv                       10081118     bindings.exp
 0002:0002311c       rgszName                   1008111c     bindings.exp
 0002:00023120       rgwOrd                     10081120     bindings.exp
 0002:00023122       szName                     10081122     bindings.exp
 0002:00023130       $N00001                    10081130     bindings.exp
 0002:000232a0       .idata$6                   100812a0     kernel32:KERNEL32.dll
 0003:00000020       ?__vcrt_flsindex@@3KA      10082020     libvcruntime:per_thread_data.obj
 0003:000000f0       _errno_no_memory           100820f0     libucrt:errno.obj
 0003:000000f4       _doserrno_no_memory        100820f4     libucrt:errno.obj
 0003:000001fc       ___acrt_flsindex           100821fc     libucrt:per_thread_data.obj
 0003:00000300       ___rgctypeflag             10082300     libucrt:mbctype.obj
 0003:00000308       ___rgcode_page_info        10082308     libucrt:mbctype.obj
 0003:000008a0       __module                   100828a0     bindings.obj
 0003:000008c4       _mpg123_decoder_list       100828c4     libmpg123:optimize.obj
 0003:000008cc       _bad_reader                100828cc     libmpg123:readers.obj
 0003:00000900       _readers                   10082900     libmpg123:readers.obj
 0003:000009f0       _pretab_choice             100829f0     libmpg123:layer3.obj
 0003:00000b64       ?__proc_attached@@3HA      10082b64     LIBCMT:dll_dllmain.obj
 0003:00000b68       _GS_ExceptionRecord        10082b68     LIBCMT:gs_report.obj
 0003:00000bb8       _GS_ContextRecord          10082bb8     LIBCMT:gs_report.obj
 0003:00000e8c       ?module_local_atexit_table@@3U_onexit_table_t@@A 10082e8c     LIBCMT:utility.obj
 0003:00000e98       ?module_local_at_quick_exit_table@@3U_onexit_table_t@@A 10082e98     LIBCMT:utility.obj
 0003:00000ea4       ?is_initialized_as_dll@@3_NA 10082ea4     LIBCMT:utility.obj
 0003:00000ebc       ?__vcrt_startup_thread_ptd@@3U__vcrt_ptd@@A 10082ebc     libvcruntime:per_thread_data.obj
 0003:00000ee4       ___vcrt_lock_table         10082ee4     libvcruntime:locks.obj
 0003:00000efc       ___vcrt_locks_initialized  10082efc     libvcruntime:locks.obj
 0003:00000f00       ?module_handles@@3PAPAUHINSTANCE__@@A 10082f00     libvcruntime:winapi_downlevel.obj
 0003:00000f10       ?encoded_function_pointers@@3PAPAXA 10082f10     libvcruntime:winapi_downlevel.obj
 0003:00000f60       ?heap@@3V_HeapManager@@A   10082f60     libvcruntime:undname.obj
 0003:00000f80       _c_termination_complete    10082f80     libucrt:exit.obj
 0003:00000f84       _thread_local_exit_callback_func 10082f84     libucrt:exit.obj
 0003:00000f88       ?c_exit_complete@?5??common_exit@@YAXHW4_crt_exit_cleanup_mode@@W4_crt_exit_return_mode@@@Z@4_NA 10082f88     libucrt:exit.obj
 0003:00000f8c       ___acrt_new_handler        10082f8c     libucrt:new_handler.obj
 0003:00000f90       ?program_name@?5???$common_configure_argv@D@@YAHW4_crt_argv_mode@@@Z@4PADA 10082f90     libucrt:argv_parsing.obj
 0003:000010c0       ___acrt_invalid_parameter_handler 100830c0     libucrt:invalid_parameter.obj
 0003:000010c4       ___acrt_app_type           100830c4     libucrt:report_runtime_error.obj
 0003:000010c8       _ctrlc_action              100830c8     libucrt:signal.obj
 0003:000010cc       _ctrlbreak_action          100830cc     libucrt:signal.obj
 0003:000010d0       _abort_action              100830d0     libucrt:signal.obj
 0003:000010d4       _term_action               100830d4     libucrt:signal.obj
 0003:000012e4       _enable_percent_n          100832e4     libucrt:printf_count_output.obj
 0003:000012f0       _module_handles            100832f0     libucrt:winapi_thunks.obj
 0003:00001340       _encoded_function_pointers 10083340     libucrt:winapi_thunks.obj
 0003:000013c0       ?state_cache@?1??__acrt_is_packaged_app@@9@4JA 100833c0     libucrt:winapi_thunks.obj
 0003:000013c8       ___acrt_lock_table         100833c8     libucrt:locks.obj
 0003:00001500       ___acrt_locks_initialized  10083500     libucrt:locks.obj
 0003:0000151c       _fSystemSet                1008351c     libucrt:mbctype.obj
 0003:00001520       ?initialized@?1??__acrt_initialize_multibyte@@9@4_NA 10083520     libucrt:mbctype.obj
 0003:00001540       _user_matherr              10083540     libucrt:matherr.obj
 0003:00001544       ___acrt_global_new_mode    10083544     libucrt:new_mode.obj
 0003:00001554       __pmatherr_set             10083554     libucrt:libm_error.obj
 0003:00001580       ?init@?1??init_log_table@@9@9 10083580     libmp3lame:util.obj
 0003:00001584       _initialized               10083584     libmpg123:libmpg123.obj
 0003:00001588       _grp_5tab                  10083588     libmpg123:layer2.obj
 0003:00001b88       _grp_9tab                  10083b88     libmpg123:layer2.obj
 0003:00004b88       _grp_3tab                  10086b88     libmpg123:layer2.obj
 0003:00004d08       _cos64                     10086d08     libmpg123:tabinit.obj
 0003:00004d48       _cos32                     10086d48     libmpg123:tabinit.obj
 0003:00004d68       _cos8                      10086d68     libmpg123:tabinit.obj
 0003:00004d70       _cos16                     10086d70     libmpg123:tabinit.obj
 0003:00004d80       _cos4                      10086d80     libmpg123:tabinit.obj
 0003:00004d84       _ma_max_i2                 10086d84     libmp3lame:psymodel.obj
 0003:00004d88       _ma_max_i1                 10086d88     libmp3lame:psymodel.obj
 0003:00004d8c       _COS6_1                    10086d8c     libmpg123:layer3.obj
 0003:00004d90       _log_table                 10086d90     libmp3lame:util.obj
 0003:00005594       _COS6_2                    10087594     libmpg123:layer3.obj
 0003:000055a0       _window                    100875a0     libmp3lame:fft.obj
 0003:000065a0       _window_s                  100885a0     libmp3lame:fft.obj
 0003:000067a0       _mapbuf1                   100887a0     libmpg123:layer3.obj
 0003:00007d90       _tan2_1                    10089d90     libmpg123:layer3.obj
 0003:00007dd0       _mapbuf0                   10089dd0     libmpg123:layer3.obj
 0003:00009330       _i_slen2                   1008b330     libmpg123:layer3.obj
 0003:00009730       _tan1_1                    1008b730     libmpg123:layer3.obj
 0003:00009770       _tan1_2                    1008b770     libmpg123:layer3.obj
 0003:000097b0       _pow1_1                    1008b7b0     libmpg123:layer3.obj
 0003:00009830       _pow2_1                    1008b830     libmpg123:layer3.obj
 0003:000098b0       _cos18                     1008b8b0     libmpg123:layer3.obj
 0003:000098c0       _pow2_2                    1008b8c0     libmpg123:layer3.obj
 0003:00009940       _map                       1008b940     libmpg123:layer3.obj
 0003:000099b0       _n_slen2                   1008b9b0     libmpg123:layer3.obj
 0003:0000a1b0       _win                       1008c1b0     libmpg123:layer3.obj
 0003:0000a3f0       _cos9                      1008c3f0     libmpg123:layer3.obj
 0003:0000a3fc       _tfcos12                   1008c3fc     libmpg123:layer3.obj
 0003:0000a410       _aa_cs                     1008c410     libmpg123:layer3.obj
 0003:0000a430       _pow1_2                    1008c430     libmpg123:layer3.obj
 0003:0000a4b0       _tan2_2                    1008c4b0     libmpg123:layer3.obj
 0003:0000a4f0       _win1                      1008c4f0     libmpg123:layer3.obj
 0003:0000a730       _mapbuf2                   1008c730     libmpg123:layer3.obj
 0003:0000ad60       _mapend                    1008cd60     libmpg123:layer3.obj
 0003:0000add0       _aa_ca                     1008cdd0     libmpg123:layer3.obj
 0003:0000adf0       _ispow                     1008cdf0     libmpg123:layer3.obj
 0004:00000000       __guard_fids____dcrt_uninitialize_environments_nolock 100a6000     libucrt:environment_initialization.obj
 0004:00000008       __guard_fids__             100a6008     libucrt:initialization.obj
 0004:00000068       __guard_fids____acrt_initialize_ptd 100a6068     libucrt:per_thread_data.obj
 0004:0000006c       __guard_fids__             100a606c     libucrt:stdio_initializer.obj
 0004:00000070       __guard_fids__             100a6070     libucrt:stdio_initializer.obj
 0004:00000074       __guard_fids_??$expand_argument_wildcards@D@@YAHQAD0AAV?$argument_list@D@?A0xb0e4b824@@@Z 100a6074     libucrt:argv_wildcards.obj
 0004:00000078       __guard_fids__             100a6078     libucrt:locale_initializer.obj
 0004:0000007c       __guard_fids__             100a607c     libucrt:multibyte_initializer.obj
 0004:00000080       __guard_fids____libm_error_support 100a6080     libucrt:libm_error.obj
 0004:00000084       __guard_fids__             100a6084     libucrt:console_output_initializer.obj
 0004:00000088       __guard_fids__             100a6088     libucrt:sse2_initializer.obj
 0004:0000008c       __guard_fids_?dllmain_crt_process_attach@@YAHQAUHINSTANCE__@@QAX@Z 100a608c     LIBCMT:dll_dllmain.obj
 0004:00000094       __guard_fids_?dllmain_dispatch@@YAHQAUHINSTANCE__@@KQAX@Z 100a6094     LIBCMT:dll_dllmain.obj
 0004:00000098       __guard_fids__             100a6098     LIBCMT:throw_bad_alloc.obj
 0004:000000a0       __guard_fids__             100a60a0     LIBCMT:throw_bad_alloc.obj
 0004:000000a8       __guard_fids__             100a60a8     LIBCMT:throw_bad_alloc.obj
 0004:000000b0       __guard_fids__             100a60b0     LIBCMT:throw_bad_alloc.obj
 0004:000000b4       __guard_fids__             100a60b4     LIBCMT:throw_bad_alloc.obj
 0004:000000b8       __guard_fids__             100a60b8     LIBCMT:throw_bad_alloc.obj
 0004:000000bc       __guard_fids__             100a60bc     LIBCMT:throw_bad_alloc.obj
 0004:000000c0       __guard_fids__             100a60c0     LIBCMT:throw_bad_alloc.obj
 0004:000000c4       __guard_fids__             100a60c4     LIBCMT:std_type_info_static.obj
 0004:000000c8       __guard_fids__             100a60c8     LIBCMT:guard_support.obj
 0004:000000cc       __guard_fids____vcrt_initialize_ptd 100a60cc     libvcruntime:per_thread_data.obj
 0005:00000000       _static_const_table        100a7000     LIBCMT:_svml_dcos2_sse2_.obj
 0005:00000200       _static_const_table        100a7200     LIBCMT:_svml_dlog2_sse2_.obj
 0005:00000b00       INF_c_1917_0_4             100a7b00     LIBCMT:_svml_dpow2_sse2_.obj
 0005:00000b10       QNaN_c_1917_0_4            100a7b10     LIBCMT:_svml_dpow2_sse2_.obj
 0005:00000c00       __e02PI                    100a7c00     LIBCMT:_svml_dtrig_.obj
 0005:00000da0       __e04PI                    100a7da0     LIBCMT:_svml_dtrig_.obj
 0005:00000f30       _2il0floatpacket_2         100a7f30     LIBCMT:_svml_dtrig_.obj
 0005:00000f40       _2il0floatpacket_9         100a7f40     LIBCMT:_svml_dtrig_.obj
 0005:00000f50       _2il0floatpacket_12        100a7f50     LIBCMT:_svml_dtrig_.obj
 0005:00000f60       __dPI02                    100a7f60     LIBCMT:_svml_dtrig_.obj
 0005:00000f70       __d02PI                    100a7f70     LIBCMT:_svml_dtrig_.obj
 0005:00000f80       __DP4                      100a7f80     LIBCMT:_svml_dtrig_.obj
 0005:00000fa0       __dPI04                    100a7fa0     LIBCMT:_svml_dtrig_.obj
 0005:00000fb0       __d04PI                    100a7fb0     LIBCMT:_svml_dtrig_.obj
 0005:00000fc0       __QP4                      100a7fc0     LIBCMT:_svml_dtrig_.obj
 0006:00000060       $R000000                   100a8060     * linker generated manifest res *

 Exports

  ordinal    name

        1    __register_bindings_
               exported name: _register_bindings_
